

Microchip Technology PIC LITE Macro Assembler V1.11 build 48931 
                                                                                               Mon Mar 18 16:02:58 2013

HI-TECH Software Omniscient Code Generator (Lite mode) build 48931
     1  0000                     opt subtitle "HI-TECH Software Omniscient Code Generator (Lite mode) build 48931"
     2                           
     3                           opt pagewidth 120
     4                           
     5                           	opt lm
     6                           
     7                           	processor	16F877A
     8                           clrc	macro
     9                           	bcf	3,0
    10  0000                     	endm
    11                           clrz	macro
    12                           	bcf	3,2
    13  0000                     	endm
    14                           setc	macro
    15                           	bsf	3,0
    16  0000                     	endm
    17                           setz	macro
    18                           	bsf	3,2
    19  0000                     	endm
    20                           skipc	macro
    21                           	btfss	3,0
    22  0000                     	endm
    23                           skipz	macro
    24                           	btfss	3,2
    25  0000                     	endm
    26                           skipnc	macro
    27                           	btfsc	3,0
    28  0000                     	endm
    29                           skipnz	macro
    30                           	btfsc	3,2
    31  0000                     	endm
    32  0000                     indf	equ	0
    33  0000                     indf0	equ	0
    34  0002                     pc	equ	2
    35  0002                     pcl	equ	2
    36  0003                     status	equ	3
    37  0004                     fsr	equ	4
    38  0004                     fsr0	equ	4
    39  0001                     c	equ	1
    40  0000                     z	equ	0
    41  000A                     pclath	equ	10
    42                           # 46 "C:\Program Files (x86)\Microchip\xc8\v1.11\include\pic16f877a.h"
    43  0000                     INDF equ 00h ;# 
    44                           # 52 "C:\Program Files (x86)\Microchip\xc8\v1.11\include\pic16f877a.h"
    45  0001                     TMR0 equ 01h ;# 
    46                           # 58 "C:\Program Files (x86)\Microchip\xc8\v1.11\include\pic16f877a.h"
    47  0002                     PCL equ 02h ;# 
    48                           # 64 "C:\Program Files (x86)\Microchip\xc8\v1.11\include\pic16f877a.h"
    49  0003                     STATUS equ 03h ;# 
    50                           # 151 "C:\Program Files (x86)\Microchip\xc8\v1.11\include\pic16f877a.h"
    51  0004                     FSR equ 04h ;# 
    52                           # 157 "C:\Program Files (x86)\Microchip\xc8\v1.11\include\pic16f877a.h"
    53  0005                     PORTA equ 05h ;# 
    54                           # 206 "C:\Program Files (x86)\Microchip\xc8\v1.11\include\pic16f877a.h"
    55  0006                     PORTB equ 06h ;# 
    56                           # 267 "C:\Program Files (x86)\Microchip\xc8\v1.11\include\pic16f877a.h"
    57  0007                     PORTC equ 07h ;# 
    58                           # 328 "C:\Program Files (x86)\Microchip\xc8\v1.11\include\pic16f877a.h"
    59  0008                     PORTD equ 08h ;# 
    60                           # 389 "C:\Program Files (x86)\Microchip\xc8\v1.11\include\pic16f877a.h"
    61  0009                     PORTE equ 09h ;# 
    62                           # 420 "C:\Program Files (x86)\Microchip\xc8\v1.11\include\pic16f877a.h"
    63  000A                     PCLATH equ 0Ah ;# 
    64                           # 439 "C:\Program Files (x86)\Microchip\xc8\v1.11\include\pic16f877a.h"
    65  000B                     INTCON equ 0Bh ;# 
    66                           # 516 "C:\Program Files (x86)\Microchip\xc8\v1.11\include\pic16f877a.h"
    67  000C                     PIR1 equ 0Ch ;# 
    68                           # 577 "C:\Program Files (x86)\Microchip\xc8\v1.11\include\pic16f877a.h"
    69  000D                     PIR2 equ 0Dh ;# 
    70                           # 616 "C:\Program Files (x86)\Microchip\xc8\v1.11\include\pic16f877a.h"
    71  000E                     TMR1 equ 0Eh ;# 
    72                           # 622 "C:\Program Files (x86)\Microchip\xc8\v1.11\include\pic16f877a.h"
    73  000E                     TMR1L equ 0Eh ;# 
    74                           # 628 "C:\Program Files (x86)\Microchip\xc8\v1.11\include\pic16f877a.h"
    75  000F                     TMR1H equ 0Fh ;# 
    76                           # 634 "C:\Program Files (x86)\Microchip\xc8\v1.11\include\pic16f877a.h"
    77  0010                     T1CON equ 010h ;# 
    78                           # 708 "C:\Program Files (x86)\Microchip\xc8\v1.11\include\pic16f877a.h"
    79  0011                     TMR2 equ 011h ;# 
    80                           # 714 "C:\Program Files (x86)\Microchip\xc8\v1.11\include\pic16f877a.h"
    81  0012                     T2CON equ 012h ;# 
    82                           # 784 "C:\Program Files (x86)\Microchip\xc8\v1.11\include\pic16f877a.h"
    83  0013                     SSPBUF equ 013h ;# 
    84                           # 790 "C:\Program Files (x86)\Microchip\xc8\v1.11\include\pic16f877a.h"
    85  0014                     SSPCON equ 014h ;# 
    86                           # 859 "C:\Program Files (x86)\Microchip\xc8\v1.11\include\pic16f877a.h"
    87  0015                     CCPR1 equ 015h ;# 
    88                           # 865 "C:\Program Files (x86)\Microchip\xc8\v1.11\include\pic16f877a.h"
    89  0015                     CCPR1L equ 015h ;# 
    90                           # 871 "C:\Program Files (x86)\Microchip\xc8\v1.11\include\pic16f877a.h"
    91  0016                     CCPR1H equ 016h ;# 
    92                           # 877 "C:\Program Files (x86)\Microchip\xc8\v1.11\include\pic16f877a.h"
    93  0017                     CCP1CON equ 017h ;# 
    94                           # 934 "C:\Program Files (x86)\Microchip\xc8\v1.11\include\pic16f877a.h"
    95  0018                     RCSTA equ 018h ;# 
    96                           # 1028 "C:\Program Files (x86)\Microchip\xc8\v1.11\include\pic16f877a.h"
    97  0019                     TXREG equ 019h ;# 
    98                           # 1034 "C:\Program Files (x86)\Microchip\xc8\v1.11\include\pic16f877a.h"
    99  001A                     RCREG equ 01Ah ;# 
   100                           # 1040 "C:\Program Files (x86)\Microchip\xc8\v1.11\include\pic16f877a.h"
   101  001B                     CCPR2 equ 01Bh ;# 
   102                           # 1046 "C:\Program Files (x86)\Microchip\xc8\v1.11\include\pic16f877a.h"
   103  001B                     CCPR2L equ 01Bh ;# 
   104                           # 1052 "C:\Program Files (x86)\Microchip\xc8\v1.11\include\pic16f877a.h"
   105  001C                     CCPR2H equ 01Ch ;# 
   106                           # 1058 "C:\Program Files (x86)\Microchip\xc8\v1.11\include\pic16f877a.h"
   107  001D                     CCP2CON equ 01Dh ;# 
   108                           # 1115 "C:\Program Files (x86)\Microchip\xc8\v1.11\include\pic16f877a.h"
   109  001E                     ADRESH equ 01Eh ;# 
   110                           # 1121 "C:\Program Files (x86)\Microchip\xc8\v1.11\include\pic16f877a.h"
   111  001F                     ADCON0 equ 01Fh ;# 
   112                           # 1216 "C:\Program Files (x86)\Microchip\xc8\v1.11\include\pic16f877a.h"
   113  0081                     OPTION_REG equ 081h ;# 
   114                           # 1285 "C:\Program Files (x86)\Microchip\xc8\v1.11\include\pic16f877a.h"
   115  0085                     TRISA equ 085h ;# 
   116                           # 1334 "C:\Program Files (x86)\Microchip\xc8\v1.11\include\pic16f877a.h"
   117  0086                     TRISB equ 086h ;# 
   118                           # 1395 "C:\Program Files (x86)\Microchip\xc8\v1.11\include\pic16f877a.h"
   119  0087                     TRISC equ 087h ;# 
   120                           # 1456 "C:\Program Files (x86)\Microchip\xc8\v1.11\include\pic16f877a.h"
   121  0088                     TRISD equ 088h ;# 
   122                           # 1517 "C:\Program Files (x86)\Microchip\xc8\v1.11\include\pic16f877a.h"
   123  0089                     TRISE equ 089h ;# 
   124                           # 1573 "C:\Program Files (x86)\Microchip\xc8\v1.11\include\pic16f877a.h"
   125  008C                     PIE1 equ 08Ch ;# 
   126                           # 1634 "C:\Program Files (x86)\Microchip\xc8\v1.11\include\pic16f877a.h"
   127  008D                     PIE2 equ 08Dh ;# 
   128                           # 1673 "C:\Program Files (x86)\Microchip\xc8\v1.11\include\pic16f877a.h"
   129  008E                     PCON equ 08Eh ;# 
   130                           # 1706 "C:\Program Files (x86)\Microchip\xc8\v1.11\include\pic16f877a.h"
   131  0091                     SSPCON2 equ 091h ;# 
   132                           # 1767 "C:\Program Files (x86)\Microchip\xc8\v1.11\include\pic16f877a.h"
   133  0092                     PR2 equ 092h ;# 
   134                           # 1773 "C:\Program Files (x86)\Microchip\xc8\v1.11\include\pic16f877a.h"
   135  0093                     SSPADD equ 093h ;# 
   136                           # 1779 "C:\Program Files (x86)\Microchip\xc8\v1.11\include\pic16f877a.h"
   137  0094                     SSPSTAT equ 094h ;# 
   138                           # 1947 "C:\Program Files (x86)\Microchip\xc8\v1.11\include\pic16f877a.h"
   139  0098                     TXSTA equ 098h ;# 
   140                           # 2027 "C:\Program Files (x86)\Microchip\xc8\v1.11\include\pic16f877a.h"
   141  0099                     SPBRG equ 099h ;# 
   142                           # 2033 "C:\Program Files (x86)\Microchip\xc8\v1.11\include\pic16f877a.h"
   143  009C                     CMCON equ 09Ch ;# 
   144                           # 2102 "C:\Program Files (x86)\Microchip\xc8\v1.11\include\pic16f877a.h"
   145  009D                     CVRCON equ 09Dh ;# 
   146                           # 2166 "C:\Program Files (x86)\Microchip\xc8\v1.11\include\pic16f877a.h"
   147  009E                     ADRESL equ 09Eh ;# 
   148                           # 2172 "C:\Program Files (x86)\Microchip\xc8\v1.11\include\pic16f877a.h"
   149  009F                     ADCON1 equ 09Fh ;# 
   150                           # 2230 "C:\Program Files (x86)\Microchip\xc8\v1.11\include\pic16f877a.h"
   151  010C                     EEDATA equ 010Ch ;# 
   152                           # 2236 "C:\Program Files (x86)\Microchip\xc8\v1.11\include\pic16f877a.h"
   153  010D                     EEADR equ 010Dh ;# 
   154                           # 2242 "C:\Program Files (x86)\Microchip\xc8\v1.11\include\pic16f877a.h"
   155  010E                     EEDATH equ 010Eh ;# 
   156                           # 2248 "C:\Program Files (x86)\Microchip\xc8\v1.11\include\pic16f877a.h"
   157  010F                     EEADRH equ 010Fh ;# 
   158                           # 2254 "C:\Program Files (x86)\Microchip\xc8\v1.11\include\pic16f877a.h"
   159  018C                     EECON1 equ 018Ch ;# 
   160                           # 2298 "C:\Program Files (x86)\Microchip\xc8\v1.11\include\pic16f877a.h"
   161  018D                     EECON2 equ 018Dh ;# 
   162                           	FNCALL	_main,_init
   163                           	FNCALL	_main,_lcd_init
   164                           	FNCALL	_main,_beep
   165                           	FNCALL	_main,_lcd_clr
   166                           	FNCALL	_main,_lcd_string
   167                           	FNCALL	_main,_lcd_2ndline
   168                           	FNCALL	_main,_delay_ms
   169                           	FNCALL	_main,_lcd_clr_line
   170                           	FNCALL	_main,_lcd_home
   171                           	FNCALL	_main,_line_follow
   172                           	FNCALL	_main,_ultrasonic
   173                           	FNCALL	_main,_analog_sen
   174                           	FNCALL	_main,_wireless_xbee
   175                           	FNCALL	_main,_SKPS_PScon
   176                           	FNCALL	_init,_adc_init
   177                           	FNCALL	_init,_interrupt_init
   178                           	FNCALL	_init,_disable_global_int
   179                           	FNCALL	_init,_lcd_init
   180                           	FNCALL	_init,_stop
   181                           	FNCALL	_lcd_init,_delay_ms
   182                           	FNCALL	_lcd_init,_lcd_config
   183                           	FNCALL	_line_follow,_lcd_clr
   184                           	FNCALL	_line_follow,_lcd_string
   185                           	FNCALL	_line_follow,_forward
   186                           	FNCALL	_line_follow,_lcd_2ndline
   187                           	FNCALL	_ultrasonic,_lcd_clr
   188                           	FNCALL	_ultrasonic,_lcd_string
   189                           	FNCALL	_ultrasonic,_lcd_goto
   190                           	FNCALL	_ultrasonic,_lcd_2ndline
   191                           	FNCALL	_ultrasonic,_beep
   192                           	FNCALL	_ultrasonic,_lcd_clr_line
   193                           	FNCALL	_ultrasonic,_timer1_init
   194                           	FNCALL	_ultrasonic,_enable_global_int
   195                           	FNCALL	_ultrasonic,_uart_init
   196                           	FNCALL	_ultrasonic,_delay_ms
   197                           	FNCALL	_ultrasonic,_disable_global_int
   198                           	FNCALL	_ultrasonic,_us_value
   199                           	FNCALL	_ultrasonic,_stop
   200                           	FNCALL	_ultrasonic,_lcd_dis_num
   201                           	FNCALL	_ultrasonic,_forward
   202                           	FNCALL	_ultrasonic,_backward
   203                           	FNCALL	_analog_sen,_lcd_clr
   204                           	FNCALL	_analog_sen,_lcd_string
   205                           	FNCALL	_analog_sen,_lcd_2ndline
   206                           	FNCALL	_analog_sen,_lcd_goto
   207                           	FNCALL	_analog_sen,_read_adc
   208                           	FNCALL	_analog_sen,___lmul
   209                           	FNCALL	_analog_sen,___lldiv
   210                           	FNCALL	_analog_sen,_lcd_dis_num
   211                           	FNCALL	_analog_sen,_lcd_char
   212                           	FNCALL	_analog_sen,_backward
   213                           	FNCALL	_analog_sen,_stop
   214                           	FNCALL	_analog_sen,_forward
   215                           	FNCALL	_wireless_xbee,_disable_global_int
   216                           	FNCALL	_wireless_xbee,_uart_init
   217                           	FNCALL	_wireless_xbee,_lcd_clr
   218                           	FNCALL	_wireless_xbee,_lcd_string
   219                           	FNCALL	_wireless_xbee,_lcd_2ndline
   220                           	FNCALL	_wireless_xbee,_delay_ms
   221                           	FNCALL	_wireless_xbee,_lcd_clr_line
   222                           	FNCALL	_wireless_xbee,_uart_rec
   223                           	FNCALL	_wireless_xbee,_beep
   224                           	FNCALL	_wireless_xbee,_uart_string_nl
   225                           	FNCALL	_wireless_xbee,_stop
   226                           	FNCALL	_wireless_xbee,_forward
   227                           	FNCALL	_wireless_xbee,_lcd_goto
   228                           	FNCALL	_wireless_xbee,_backward
   229                           	FNCALL	_wireless_xbee,_right
   230                           	FNCALL	_wireless_xbee,_left
   231                           	FNCALL	_SKPS_PScon,_disable_global_int
   232                           	FNCALL	_SKPS_PScon,_stop
   233                           	FNCALL	_SKPS_PScon,_lcd_clr
   234                           	FNCALL	_SKPS_PScon,_lcd_string
   235                           	FNCALL	_SKPS_PScon,_lcd_2ndline
   236                           	FNCALL	_SKPS_PScon,_delay_ms
   237                           	FNCALL	_SKPS_PScon,_lcd_clr_line
   238                           	FNCALL	_SKPS_PScon,_lcd_goto
   239                           	FNCALL	_SKPS_PScon,_uart_init
   240                           	FNCALL	_SKPS_PScon,_beep
   241                           	FNCALL	_SKPS_PScon,_skps
   242                           	FNCALL	_SKPS_PScon,_forward
   243                           	FNCALL	_SKPS_PScon,_backward
   244                           	FNCALL	_SKPS_PScon,_left
   245                           	FNCALL	_SKPS_PScon,_right
   246                           	FNCALL	_beep,_delay_ms
   247                           	FNCALL	_lcd_clr,_lcd_config
   248                           	FNCALL	_lcd_clr,_delay_ms
   249                           	FNCALL	_lcd_string,_lcd_char
   250                           	FNCALL	_lcd_clr_line,_lcd_home
   251                           	FNCALL	_lcd_clr_line,_lcd_2ndline
   252                           	FNCALL	_lcd_clr_line,_lcd_char
   253                           	FNCALL	_lcd_2ndline,_lcd_config
   254                           	FNCALL	_lcd_home,_lcd_config
   255                           	FNCALL	_lcd_goto,_lcd_config
   256                           	FNCALL	_lcd_config,_delay_ms
   257                           	FNCALL	_lcd_config,_e_pulse
   258                           	FNCALL	_lcd_dis_num,___lwdiv
   259                           	FNCALL	_lcd_dis_num,___lwmod
   260                           	FNCALL	_lcd_dis_num,_lcd_char
   261                           	FNCALL	_lcd_char,_delay_ms
   262                           	FNCALL	_lcd_char,_e_pulse
   263                           	FNCALL	_e_pulse,_delay_ms
   264                           	FNCALL	_uart_string_nl,_uart_string
   265                           	FNCALL	_uart_string_nl,_uart_send
   266                           	FNCALL	_uart_string,_uart_send
   267                           	FNCALL	_skps,_uart_send
   268                           	FNCALL	_skps,_uart_rec
   269                           	FNCALL	_us_value,_read_adc
   270                           	FNCALL	_us_value,___lmul
   271                           	FNCALL	_us_value,___lldiv
   272                           	FNCALL	_us_value,___wmul
   273                           	FNCALL	_read_adc,_delay_ms
   274                           	FNCALL	_read_adc,___lldiv
   275                           	FNROOT	_main
   276                           	FNCALL	intlevel1,_isr
   277                           	global	intlevel1
   278                           	FNROOT	intlevel1
   279                           	global	_mode_string
   280                           psect	idataBANK1,class=CODE,space=0,delta=2
   281                           global __pidataBANK1
   282  1477                     __pidataBANK1:
   283                           	file	"PR23.c"
   284                           	line	124
   285                           
   286                           ;initializer for _mode_string
   287  1477  3434               	retlw	low(_line|8000h)
   288  1478  3481               	retlw	high(_line|8000h)
   289                           
   290  1479  3412               	retlw	low(_US|8000h)
   291  147A  3481               	retlw	high(_US|8000h)
   292                           
   293  147B  3456               	retlw	low(_AS|8000h)
   294  147C  3481               	retlw	high(_AS|8000h)
   295                           
   296  147D  34A1               	retlw	low(_XB|8000h)
   297  147E  3481               	retlw	high(_XB|8000h)
   298                           
   299  147F  34AA               	retlw	low(_SKPS|8000h)
   300  1480  3481               	retlw	high(_SKPS|8000h)
   301                           
   302                           	global	_US
   303                           psect	stringtext,class=STRCODE,delta=2,reloc=256
   304                           global __pstringtext
   305  0100                     __pstringtext:
   306                           ;	global	stringtab,__stringbase
   307  0100                     stringtab:
   308                           	global    __stringtab
   309  0100                     __stringtab:
   310                           ;	String table - string pointers are 2 bytes each
   311  0100  1BFF               	btfsc	(btemp+1),7
   312  0101  290A               	ljmp	stringcode
   313  0102  1383               	bcf	status,7
   314  0103  187F               	btfsc	(btemp+1),0
   315  0104  1783               	bsf	status,7
   316  0105  0800               	movf	indf,w
   317  0106  0A84               	incf fsr
   318  0107  1903               skipnz
   319  0108  0AFF               incf btemp+1
   320  0109  0008               	return
   321  010A                     stringcode:
   322  010A  087F               	movf btemp+1,w
   323  010B  397F               andlw 7Fh
   324  010C  008A               movwf	pclath
   325  010D  0804               	movf	fsr,w
   326  010E  0A84               incf fsr
   327  010F  1903               skipnz
   328  0110  0AFF               incf btemp+1
   329  0111  0082               	movwf pc
   330  0112                     __stringbase:
   331                           	global    __end_of__stringtab
   332  0112                     __end_of__stringtab:
   333                           	file	"PR23.c"
   334                           	line	120
   335  0112                     _US:
   336  0112  3432               	retlw	032h
   337  0113  342E               	retlw	02Eh
   338  0114  3455               	retlw	055h
   339  0115  346C               	retlw	06Ch
   340  0116  3474               	retlw	074h
   341  0117  3472               	retlw	072h
   342  0118  3461               	retlw	061h
   343  0119  3473               	retlw	073h
   344  011A  346F               	retlw	06Fh
   345  011B  346E               	retlw	06Eh
   346  011C  3469               	retlw	069h
   347  011D  3463               	retlw	063h
   348  011E  3420               	retlw	020h
   349  011F  3445               	retlw	045h
   350  0120  345A               	retlw	05Ah
   351  0121  3431               	retlw	031h
   352  0122  3400               	retlw	0
   353                           	global __end_of_US
   354  0123                     __end_of_US:
   355                           	global	_code_version
   356                           psect	stringtext
   357                           	file	"PR23.c"
   358                           	line	118
   359  0123                     _code_version:
   360  0123  3453               	retlw	053h
   361  0124  3461               	retlw	061h
   362  0125  346D               	retlw	06Dh
   363  0126  3470               	retlw	070h
   364  0127  346C               	retlw	06Ch
   365  0128  3465               	retlw	065h
   366  0129  3420               	retlw	020h
   367  012A  3443               	retlw	043h
   368  012B  346F               	retlw	06Fh
   369  012C  3464               	retlw	064h
   370  012D  3465               	retlw	065h
   371  012E  3420               	retlw	020h
   372  012F  3476               	retlw	076h
   373  0130  3432               	retlw	032h
   374  0131  342E               	retlw	02Eh
   375  0132  3432               	retlw	032h
   376  0133  3400               	retlw	0
   377                           	global __end_of_code_version
   378  0134                     __end_of_code_version:
   379                           	global	_line
   380                           psect	stringtext
   381                           	file	"PR23.c"
   382                           	line	119
   383  0134                     _line:
   384  0134  3431               	retlw	031h
   385  0135  342E               	retlw	02Eh
   386  0136  344C               	retlw	04Ch
   387  0137  3469               	retlw	069h
   388  0138  346E               	retlw	06Eh
   389  0139  3465               	retlw	065h
   390  013A  3420               	retlw	020h
   391  013B  3446               	retlw	046h
   392  013C  346F               	retlw	06Fh
   393  013D  346C               	retlw	06Ch
   394  013E  346C               	retlw	06Ch
   395  013F  346F               	retlw	06Fh
   396  0140  3477               	retlw	077h
   397  0141  3469               	retlw	069h
   398  0142  346E               	retlw	06Eh
   399  0143  3467               	retlw	067h
   400  0144  3400               	retlw	0
   401                           	global __end_of_line
   402  0145                     __end_of_line:
   403                           	global	_multifunction_robot
   404                           psect	stringtext
   405                           	file	"PR23.c"
   406                           	line	114
   407  0145                     _multifunction_robot:
   408  0145  344D               	retlw	04Dh
   409  0146  3475               	retlw	075h
   410  0147  346C               	retlw	06Ch
   411  0148  3474               	retlw	074h
   412  0149  3469               	retlw	069h
   413  014A  3466               	retlw	066h
   414  014B  3475               	retlw	075h
   415  014C  346E               	retlw	06Eh
   416  014D  3463               	retlw	063h
   417  014E  3474               	retlw	074h
   418  014F  3469               	retlw	069h
   419  0150  346F               	retlw	06Fh
   420  0151  346E               	retlw	06Eh
   421  0152  3420               	retlw	020h
   422  0153  344D               	retlw	04Dh
   423  0154  3452               	retlw	052h
   424  0155  3400               	retlw	0
   425                           	global __end_of_multifunction_robot
   426  0156                     __end_of_multifunction_robot:
   427                           	global	_AS
   428                           psect	stringtext
   429                           	file	"PR23.c"
   430                           	line	121
   431  0156                     _AS:
   432  0156  3433               	retlw	033h
   433  0157  342E               	retlw	02Eh
   434  0158  3441               	retlw	041h
   435  0159  346E               	retlw	06Eh
   436  015A  3461               	retlw	061h
   437  015B  346C               	retlw	06Ch
   438  015C  346F               	retlw	06Fh
   439  015D  3467               	retlw	067h
   440  015E  3420               	retlw	020h
   441  015F  3453               	retlw	053h
   442  0160  3465               	retlw	065h
   443  0161  346E               	retlw	06Eh
   444  0162  3473               	retlw	073h
   445  0163  346F               	retlw	06Fh
   446  0164  3472               	retlw	072h
   447  0165  3400               	retlw	0
   448                           	global __end_of_AS
   449  0166                     __end_of_AS:
   450                           	global	_diy_project
   451                           psect	stringtext
   452                           	file	"PR23.c"
   453                           	line	113
   454  0166                     _diy_project:
   455  0166  3420               	retlw	020h
   456  0167  3444               	retlw	044h
   457  0168  346F               	retlw	06Fh
   458  0169  3420               	retlw	020h
   459  016A  3449               	retlw	049h
   460  016B  3474               	retlw	074h
   461  016C  3420               	retlw	020h
   462  016D  3459               	retlw	059h
   463  016E  346F               	retlw	06Fh
   464  016F  3475               	retlw	075h
   465  0170  3472               	retlw	072h
   466  0171  3473               	retlw	073h
   467  0172  3465               	retlw	065h
   468  0173  346C               	retlw	06Ch
   469  0174  3466               	retlw	066h
   470  0175  3400               	retlw	0
   471                           	global __end_of_diy_project
   472  0176                     __end_of_diy_project:
   473                           	global	_cytron_website
   474                           psect	stringtext
   475                           	file	"PR23.c"
   476                           	line	117
   477  0176                     _cytron_website:
   478  0176  3420               	retlw	020h
   479  0177  3463               	retlw	063h
   480  0178  3479               	retlw	079h
   481  0179  3474               	retlw	074h
   482  017A  3472               	retlw	072h
   483  017B  346F               	retlw	06Fh
   484  017C  346E               	retlw	06Eh
   485  017D  342E               	retlw	02Eh
   486  017E  3463               	retlw	063h
   487  017F  346F               	retlw	06Fh
   488  0180  346D               	retlw	06Dh
   489  0181  342E               	retlw	02Eh
   490  0182  346D               	retlw	06Dh
   491  0183  3479               	retlw	079h
   492  0184  3400               	retlw	0
   493                           	global __end_of_cytron_website
   494  0185                     __end_of_cytron_website:
   495                           	global	_cytron_tech
   496                           psect	stringtext
   497                           	file	"PR23.c"
   498                           	line	116
   499  0185                     _cytron_tech:
   500  0185  3420               	retlw	020h
   501  0186  3420               	retlw	020h
   502  0187  3443               	retlw	043h
   503  0188  3479               	retlw	079h
   504  0189  3474               	retlw	074h
   505  018A  3472               	retlw	072h
   506  018B  346F               	retlw	06Fh
   507  018C  346E               	retlw	06Eh
   508  018D  3420               	retlw	020h
   509  018E  3454               	retlw	054h
   510  018F  3465               	retlw	065h
   511  0190  3463               	retlw	063h
   512  0191  3468               	retlw	068h
   513  0192  3400               	retlw	0
   514                           	global __end_of_cytron_tech
   515  0193                     __end_of_cytron_tech:
   516                           	global	_pr23_rev
   517                           psect	stringtext
   518                           	file	"PR23.c"
   519                           	line	115
   520  0193                     _pr23_rev:
   521  0193  3420               	retlw	020h
   522  0194  3420               	retlw	020h
   523  0195  3450               	retlw	050h
   524  0196  3452               	retlw	052h
   525  0197  3432               	retlw	032h
   526  0198  3433               	retlw	033h
   527  0199  3420               	retlw	020h
   528  019A  3452               	retlw	052h
   529  019B  3465               	retlw	065h
   530  019C  3476               	retlw	076h
   531  019D  3432               	retlw	032h
   532  019E  342E               	retlw	02Eh
   533  019F  3430               	retlw	030h
   534  01A0  3400               	retlw	0
   535                           	global __end_of_pr23_rev
   536  01A1                     __end_of_pr23_rev:
   537                           	global	_XB
   538                           psect	stringtext
   539                           	file	"PR23.c"
   540                           	line	122
   541  01A1                     _XB:
   542  01A1  3434               	retlw	034h
   543  01A2  342E               	retlw	02Eh
   544  01A3  3453               	retlw	053h
   545  01A4  344B               	retlw	04Bh
   546  01A5  3458               	retlw	058h
   547  01A6  3442               	retlw	042h
   548  01A7  3445               	retlw	045h
   549  01A8  3445               	retlw	045h
   550  01A9  3400               	retlw	0
   551                           	global __end_of_XB
   552  01AA                     __end_of_XB:
   553                           	global	_SKPS
   554                           psect	stringtext
   555                           	file	"PR23.c"
   556                           	line	123
   557  01AA                     _SKPS:
   558  01AA  3435               	retlw	035h
   559  01AB  342E               	retlw	02Eh
   560  01AC  3453               	retlw	053h
   561  01AD  344B               	retlw	04Bh
   562  01AE  3450               	retlw	050h
   563  01AF  3453               	retlw	053h
   564  01B0  3400               	retlw	0
   565                           	global __end_of_SKPS
   566  01B1                     __end_of_SKPS:
   567                           	global	_US
   568                           	global	_code_version
   569                           	global	_line
   570                           	global	_multifunction_robot
   571                           	global	_AS
   572                           	global	_diy_project
   573                           	global	_cytron_website
   574                           	global	_cytron_tech
   575                           	global	_pr23_rev
   576                           	global	_XB
   577                           	global	_SKPS
   578                           	global	_pulse_width
   579                           	global	isr@i
   580                           	global	_data
   581                           	global	lcd_dis_num@F1209
   582                           	global	_ADCON0
   583  001F                     _ADCON0	set	0x1F
   584                           	global	_ADRESH
   585  001E                     _ADRESH	set	0x1E
   586                           	global	_CCP1CON
   587  0017                     _CCP1CON	set	0x17
   588                           	global	_CCP2CON
   589  001D                     _CCP2CON	set	0x1D
   590                           	global	_CCPR1L
   591  0015                     _CCPR1L	set	0x15
   592                           	global	_CCPR2L
   593  001B                     _CCPR2L	set	0x1B
   594                           	global	_PORTA
   595  0005                     _PORTA	set	0x5
   596                           	global	_PORTB
   597  0006                     _PORTB	set	0x6
   598                           	global	_PORTC
   599  0007                     _PORTC	set	0x7
   600                           	global	_PORTD
   601  0008                     _PORTD	set	0x8
   602                           	global	_PORTE
   603  0009                     _PORTE	set	0x9
   604                           	global	_RCREG
   605  001A                     _RCREG	set	0x1A
   606                           	global	_T1CON
   607  0010                     _T1CON	set	0x10
   608                           	global	_T2CON
   609  0012                     _T2CON	set	0x12
   610                           	global	_TMR1H
   611  000F                     _TMR1H	set	0xF
   612                           	global	_TMR1L
   613  000E                     _TMR1L	set	0xE
   614                           	global	_TXREG
   615  0019                     _TXREG	set	0x19
   616                           	global	_ADON
   617  00F8                     _ADON	set	0xF8
   618                           	global	_CREN
   619  00C4                     _CREN	set	0xC4
   620                           	global	_GIE
   621  005F                     _GIE	set	0x5F
   622                           	global	_GO_DONE
   623  00FA                     _GO_DONE	set	0xFA
   624                           	global	_OERR
   625  00C1                     _OERR	set	0xC1
   626                           	global	_PEIE
   627  005E                     _PEIE	set	0x5E
   628                           	global	_RB0
   629  0030                     _RB0	set	0x30
   630                           	global	_RB1
   631  0031                     _RB1	set	0x31
   632                           	global	_RB2
   633  0032                     _RB2	set	0x32
   634                           	global	_RB3
   635  0033                     _RB3	set	0x33
   636                           	global	_RB4
   637  0034                     _RB4	set	0x34
   638                           	global	_RB5
   639  0035                     _RB5	set	0x35
   640                           	global	_RB6
   641  0036                     _RB6	set	0x36
   642                           	global	_RB7
   643  0037                     _RB7	set	0x37
   644                           	global	_RBIE
   645  005B                     _RBIE	set	0x5B
   646                           	global	_RBIF
   647  0058                     _RBIF	set	0x58
   648                           	global	_RC0
   649  0038                     _RC0	set	0x38
   650                           	global	_RC3
   651  003B                     _RC3	set	0x3B
   652                           	global	_RC4
   653  003C                     _RC4	set	0x3C
   654                           	global	_RC5
   655  003D                     _RC5	set	0x3D
   656                           	global	_RCIF
   657  0065                     _RCIF	set	0x65
   658                           	global	_RE0
   659  0048                     _RE0	set	0x48
   660                           	global	_RE1
   661  0049                     _RE1	set	0x49
   662                           	global	_RE2
   663  004A                     _RE2	set	0x4A
   664                           	global	_RX9
   665  00C6                     _RX9	set	0xC6
   666                           	global	_SPEN
   667  00C7                     _SPEN	set	0xC7
   668                           	global	_TMR1ON
   669  0080                     _TMR1ON	set	0x80
   670                           	global	_TXIF
   671  0064                     _TXIF	set	0x64
   672                           	global	_ADCON1
   673  009F                     _ADCON1	set	0x9F
   674                           	global	_ADRESL
   675  009E                     _ADRESL	set	0x9E
   676                           	global	_PR2
   677  0092                     _PR2	set	0x92
   678                           	global	_SPBRG
   679  0099                     _SPBRG	set	0x99
   680                           	global	_TRISA
   681  0085                     _TRISA	set	0x85
   682                           	global	_TRISB
   683  0086                     _TRISB	set	0x86
   684                           	global	_TRISC
   685  0087                     _TRISC	set	0x87
   686                           	global	_TRISD
   687  0088                     _TRISD	set	0x88
   688                           	global	_TRISE
   689  0089                     _TRISE	set	0x89
   690                           	global	_BRGH
   691  04C2                     _BRGH	set	0x4C2
   692                           	global	_RCIE
   693  0465                     _RCIE	set	0x465
   694                           	global	_TMR1IE
   695  0460                     _TMR1IE	set	0x460
   696                           	global	_TX9
   697  04C6                     _TX9	set	0x4C6
   698                           	global	_TXEN
   699  04C5                     _TXEN	set	0x4C5
   700                           	global __stringdata
   701  01B1                     __stringdata:
   702                           	
   703  01B1                     STR_35:	
   704  01B1  344F               	retlw	79	;'O'
   705  01B2  3474               	retlw	116	;'t'
   706  01B3  3468               	retlw	104	;'h'
   707  01B4  3465               	retlw	101	;'e'
   708  01B5  3472               	retlw	114	;'r'
   709  01B6  3420               	retlw	32	;' '
   710  01B7  343D               	retlw	61	;'='
   711  01B8  3420               	retlw	32	;' '
   712  01B9  3473               	retlw	115	;'s'
   713  01BA  3474               	retlw	116	;'t'
   714  01BB  346F               	retlw	111	;'o'
   715  01BC  3470               	retlw	112	;'p'
   716  01BD  3420               	retlw	32	;' '
   717  01BE  3461               	retlw	97	;'a'
   718  01BF  346E               	retlw	110	;'n'
   719  01C0  3464               	retlw	100	;'d'
   720  01C1  3420               	retlw	32	;' '
   721  01C2  3469               	retlw	105	;'i'
   722  01C3  346E               	retlw	110	;'n'
   723  01C4  3476               	retlw	118	;'v'
   724  01C5  3461               	retlw	97	;'a'
   725  01C6  346C               	retlw	108	;'l'
   726  01C7  3469               	retlw	105	;'i'
   727  01C8  3464               	retlw	100	;'d'
   728  01C9  3420               	retlw	32	;' '
   729  01CA  3463               	retlw	99	;'c'
   730  01CB  346F               	retlw	111	;'o'
   731  01CC  346D               	retlw	109	;'m'
   732  01CD  346D               	retlw	109	;'m'
   733  01CE  3461               	retlw	97	;'a'
   734  01CF  346E               	retlw	110	;'n'
   735  01D0  3464               	retlw	100	;'d'
   736  01D1  3400               	retlw	0
   737                           psect	stringtext
   738                           	
   739  01D2                     STR_30:	
   740  01D2  3443               	retlw	67	;'C'
   741  01D3  346F               	retlw	111	;'o'
   742  01D4  346E               	retlw	110	;'n'
   743  01D5  346E               	retlw	110	;'n'
   744  01D6  3465               	retlw	101	;'e'
   745  01D7  3463               	retlw	99	;'c'
   746  01D8  3474               	retlw	116	;'t'
   747  01D9  3465               	retlw	101	;'e'
   748  01DA  3464               	retlw	100	;'d'
   749  01DB  3420               	retlw	32	;' '
   750  01DC  3477               	retlw	119	;'w'
   751  01DD  3469               	retlw	105	;'i'
   752  01DE  3474               	retlw	116	;'t'
   753  01DF  3468               	retlw	104	;'h'
   754  01E0  3420               	retlw	32	;' '
   755  01E1  3458               	retlw	88	;'X'
   756  01E2  3442               	retlw	66	;'B'
   757  01E3  3465               	retlw	101	;'e'
   758  01E4  3465               	retlw	101	;'e'
   759  01E5  3420               	retlw	32	;' '
   760  01E6  3477               	retlw	119	;'w'
   761  01E7  3469               	retlw	105	;'i'
   762  01E8  3472               	retlw	114	;'r'
   763  01E9  3465               	retlw	101	;'e'
   764  01EA  346C               	retlw	108	;'l'
   765  01EB  3465               	retlw	101	;'e'
   766  01EC  3473               	retlw	115	;'s'
   767  01ED  3473               	retlw	115	;'s'
   768  01EE  3400               	retlw	0
   769                           psect	stringtext
   770                           	
   771  01EF                     STR_33:	
   772  01EF  346E               	retlw	110	;'n'
   773  01F0  3475               	retlw	117	;'u'
   774  01F1  346D               	retlw	109	;'m'
   775  01F2  3462               	retlw	98	;'b'
   776  01F3  3465               	retlw	101	;'e'
   777  01F4  3472               	retlw	114	;'r'
   778  01F5  3420               	retlw	32	;' '
   779  01F6  3436               	retlw	54	;'6'
   780  01F7  3420               	retlw	32	;' '
   781  01F8  343D               	retlw	61	;'='
   782  01F9  3420               	retlw	32	;' '
   783  01FA  3474               	retlw	116	;'t'
   784  01FB  3475               	retlw	117	;'u'
   785  01FC  3472               	retlw	114	;'r'
   786  01FD  346E               	retlw	110	;'n'
   787  01FE  3420               	retlw	32	;' '
   788  01FF  3472               	retlw	114	;'r'
   789  0200  3469               	retlw	105	;'i'
   790  0201  3467               	retlw	103	;'g'
   791  0202  3468               	retlw	104	;'h'
   792  0203  3474               	retlw	116	;'t'
   793  0204  3400               	retlw	0
   794                           psect	stringtext
   795                           	
   796  0205                     STR_34:	
   797  0205  346E               	retlw	110	;'n'
   798  0206  3475               	retlw	117	;'u'
   799  0207  346D               	retlw	109	;'m'
   800  0208  3462               	retlw	98	;'b'
   801  0209  3465               	retlw	101	;'e'
   802  020A  3472               	retlw	114	;'r'
   803  020B  3420               	retlw	32	;' '
   804  020C  3434               	retlw	52	;'4'
   805  020D  3420               	retlw	32	;' '
   806  020E  343D               	retlw	61	;'='
   807  020F  3420               	retlw	32	;' '
   808  0210  3474               	retlw	116	;'t'
   809  0211  3475               	retlw	117	;'u'
   810  0212  3472               	retlw	114	;'r'
   811  0213  346E               	retlw	110	;'n'
   812  0214  3420               	retlw	32	;' '
   813  0215  346C               	retlw	108	;'l'
   814  0216  3465               	retlw	101	;'e'
   815  0217  3466               	retlw	102	;'f'
   816  0218  3474               	retlw	116	;'t'
   817  0219  3400               	retlw	0
   818                           psect	stringtext
   819                           	
   820  021A                     STR_32:	
   821  021A  346E               	retlw	110	;'n'
   822  021B  3475               	retlw	117	;'u'
   823  021C  346D               	retlw	109	;'m'
   824  021D  3462               	retlw	98	;'b'
   825  021E  3465               	retlw	101	;'e'
   826  021F  3472               	retlw	114	;'r'
   827  0220  3420               	retlw	32	;' '
   828  0221  3432               	retlw	50	;'2'
   829  0222  3420               	retlw	32	;' '
   830  0223  343D               	retlw	61	;'='
   831  0224  3420               	retlw	32	;' '
   832  0225  3462               	retlw	98	;'b'
   833  0226  3461               	retlw	97	;'a'
   834  0227  3463               	retlw	99	;'c'
   835  0228  346B               	retlw	107	;'k'
   836  0229  3477               	retlw	119	;'w'
   837  022A  3461               	retlw	97	;'a'
   838  022B  3472               	retlw	114	;'r'
   839  022C  3464               	retlw	100	;'d'
   840  022D  3400               	retlw	0
   841                           psect	stringtext
   842                           	
   843  022E                     STR_31:	
   844  022E  346E               	retlw	110	;'n'
   845  022F  3475               	retlw	117	;'u'
   846  0230  346D               	retlw	109	;'m'
   847  0231  3462               	retlw	98	;'b'
   848  0232  3465               	retlw	101	;'e'
   849  0233  3472               	retlw	114	;'r'
   850  0234  3420               	retlw	32	;' '
   851  0235  3438               	retlw	56	;'8'
   852  0236  3420               	retlw	32	;' '
   853  0237  343D               	retlw	61	;'='
   854  0238  3420               	retlw	32	;' '
   855  0239  3466               	retlw	102	;'f'
   856  023A  346F               	retlw	111	;'o'
   857  023B  3472               	retlw	114	;'r'
   858  023C  3477               	retlw	119	;'w'
   859  023D  3461               	retlw	97	;'a'
   860  023E  3472               	retlw	114	;'r'
   861  023F  3464               	retlw	100	;'d'
   862  0240  3400               	retlw	0
   863                           psect	stringtext
   864                           	
   865  0241                     STR_28:	
   866  0241  3452               	retlw	82	;'R'
   867  0242  3465               	retlw	101	;'e'
   868  0243  3461               	retlw	97	;'a'
   869  0244  3464               	retlw	100	;'d'
   870  0245  3479               	retlw	121	;'y'
   871  0246  3420               	retlw	32	;' '
   872  0247  3474               	retlw	116	;'t'
   873  0248  346F               	retlw	111	;'o'
   874  0249  3420               	retlw	32	;' '
   875  024A  3463               	retlw	99	;'c'
   876  024B  346F               	retlw	111	;'o'
   877  024C  346E               	retlw	110	;'n'
   878  024D  3474               	retlw	116	;'t'
   879  024E  3472               	retlw	114	;'r'
   880  024F  346F               	retlw	111	;'o'
   881  0250  346C               	retlw	108	;'l'
   882  0251  3421               	retlw	33	;'!'
   883  0252  3400               	retlw	0
   884                           psect	stringtext
   885                           	
   886  0253                     STR_45:	
   887  0253  3449               	retlw	73	;'I'
   888  0254  346E               	retlw	110	;'n'
   889  0255  3476               	retlw	118	;'v'
   890  0256  3461               	retlw	97	;'a'
   891  0257  346C               	retlw	108	;'l'
   892  0258  3469               	retlw	105	;'i'
   893  0259  3464               	retlw	100	;'d'
   894  025A  3420               	retlw	32	;' '
   895  025B  3443               	retlw	67	;'C'
   896  025C  346F               	retlw	111	;'o'
   897  025D  346D               	retlw	109	;'m'
   898  025E  346D               	retlw	109	;'m'
   899  025F  3461               	retlw	97	;'a'
   900  0260  346E               	retlw	110	;'n'
   901  0261  3464               	retlw	100	;'d'
   902  0262  3421               	retlw	33	;'!'
   903  0263  3400               	retlw	0
   904                           psect	stringtext
   905                           	
   906  0264                     STR_44:	
   907  0264  3449               	retlw	73	;'I'
   908  0265  344E               	retlw	78	;'N'
   909  0266  3456               	retlw	86	;'V'
   910  0267  3441               	retlw	65	;'A'
   911  0268  344C               	retlw	76	;'L'
   912  0269  3449               	retlw	73	;'I'
   913  026A  3444               	retlw	68	;'D'
   914  026B  3420               	retlw	32	;' '
   915  026C  3443               	retlw	67	;'C'
   916  026D  344F               	retlw	79	;'O'
   917  026E  344D               	retlw	77	;'M'
   918  026F  344D               	retlw	77	;'M'
   919  0270  3441               	retlw	65	;'A'
   920  0271  344E               	retlw	78	;'N'
   921  0272  3444               	retlw	68	;'D'
   922  0273  3400               	retlw	0
   923                           psect	stringtext
   924                           	
   925  0274                     STR_25:	
   926  0274  3420               	retlw	32	;' '
   927  0275  3453               	retlw	83	;'S'
   928  0276  344B               	retlw	75	;'K'
   929  0277  3458               	retlw	88	;'X'
   930  0278  3442               	retlw	66	;'B'
   931  0279  3465               	retlw	101	;'e'
   932  027A  3465               	retlw	101	;'e'
   933  027B  3420               	retlw	32	;' '
   934  027C  3443               	retlw	67	;'C'
   935  027D  346F               	retlw	111	;'o'
   936  027E  346E               	retlw	110	;'n'
   937  027F  3474               	retlw	116	;'t'
   938  0280  3472               	retlw	114	;'r'
   939  0281  346F               	retlw	111	;'o'
   940  0282  346C               	retlw	108	;'l'
   941  0283  3400               	retlw	0
   942                           psect	stringtext
   943                           	
   944  0284                     STR_1:	
   945  0284  3453               	retlw	83	;'S'
   946  0285  3457               	retlw	87	;'W'
   947  0286  3431               	retlw	49	;'1'
   948  0287  342B               	retlw	43	;'+'
   949  0288  342B               	retlw	43	;'+'
   950  0289  3420               	retlw	32	;' '
   951  028A  3420               	retlw	32	;' '
   952  028B  3453               	retlw	83	;'S'
   953  028C  3457               	retlw	87	;'W'
   954  028D  3432               	retlw	50	;'2'
   955  028E  342D               	retlw	45	;'-'
   956  028F  343E               	retlw	62	;'>'
   957  0290  3452               	retlw	82	;'R'
   958  0291  3475               	retlw	117	;'u'
   959  0292  346E               	retlw	110	;'n'
   960  0293  3400               	retlw	0
   961                           psect	stringtext
   962                           	
   963  0294                     STR_21:	
   964  0294  3453               	retlw	83	;'S'
   965  0295  3468               	retlw	104	;'h'
   966  0296  3461               	retlw	97	;'a'
   967  0297  3472               	retlw	114	;'r'
   968  0298  3470               	retlw	112	;'p'
   969  0299  3420               	retlw	32	;' '
   970  029A  3447               	retlw	71	;'G'
   971  029B  3450               	retlw	80	;'P'
   972  029C  3432               	retlw	50	;'2'
   973  029D  3459               	retlw	89	;'Y'
   974  029E  3430               	retlw	48	;'0'
   975  029F  3441               	retlw	65	;'A'
   976  02A0  3432               	retlw	50	;'2'
   977  02A1  3431               	retlw	49	;'1'
   978  02A2  3400               	retlw	0
   979                           psect	stringtext
   980                           	
   981  02A3                     STR_46:	
   982  02A3  3420               	retlw	32	;' '
   983  02A4  3420               	retlw	32	;' '
   984  02A5  3443               	retlw	67	;'C'
   985  02A6  346F               	retlw	111	;'o'
   986  02A7  346E               	retlw	110	;'n'
   987  02A8  3474               	retlw	116	;'t'
   988  02A9  3472               	retlw	114	;'r'
   989  02AA  346F               	retlw	111	;'o'
   990  02AB  346C               	retlw	108	;'l'
   991  02AC  3420               	retlw	32	;' '
   992  02AD  3450               	retlw	80	;'P'
   993  02AE  3452               	retlw	82	;'R'
   994  02AF  3432               	retlw	50	;'2'
   995  02B0  3433               	retlw	51	;'3'
   996  02B1  3400               	retlw	0
   997                           psect	stringtext
   998                           	
   999  02B2                     STR_2:	
  1000  02B2  3420               	retlw	32	;' '
  1001  02B3  344C               	retlw	76	;'L'
  1002  02B4  3469               	retlw	105	;'i'
  1003  02B5  346E               	retlw	110	;'n'
  1004  02B6  3465               	retlw	101	;'e'
  1005  02B7  3420               	retlw	32	;' '
  1006  02B8  3450               	retlw	80	;'P'
  1007  02B9  346F               	retlw	111	;'o'
  1008  02BA  3473               	retlw	115	;'s'
  1009  02BB  3469               	retlw	105	;'i'
  1010  02BC  3474               	retlw	116	;'t'
  1011  02BD  3469               	retlw	105	;'i'
  1012  02BE  346F               	retlw	111	;'o'
  1013  02BF  346E               	retlw	110	;'n'
  1014  02C0  3400               	retlw	0
  1015                           psect	stringtext
  1016                           	
  1017  02C1                     STR_27:	
  1018  02C1  3420               	retlw	32	;' '
  1019  02C2  3464               	retlw	100	;'d'
  1020  02C3  3420               	retlw	32	;' '
  1021  02C4  346F               	retlw	111	;'o'
  1022  02C5  346E               	retlw	110	;'n'
  1023  02C6  3420               	retlw	32	;' '
  1024  02C7  3463               	retlw	99	;'c'
  1025  02C8  346F               	retlw	111	;'o'
  1026  02C9  346D               	retlw	109	;'m'
  1027  02CA  3470               	retlw	112	;'p'
  1028  02CB  3475               	retlw	117	;'u'
  1029  02CC  3474               	retlw	116	;'t'
  1030  02CD  3465               	retlw	101	;'e'
  1031  02CE  3472               	retlw	114	;'r'
  1032  02CF  3400               	retlw	0
  1033                           psect	stringtext
  1034                           	
  1035  02D0                     STR_47:	
  1036  02D0  3420               	retlw	32	;' '
  1037  02D1  3420               	retlw	32	;' '
  1038  02D2  3420               	retlw	32	;' '
  1039  02D3  3477               	retlw	119	;'w'
  1040  02D4  3469               	retlw	105	;'i'
  1041  02D5  3474               	retlw	116	;'t'
  1042  02D6  3468               	retlw	104	;'h'
  1043  02D7  3420               	retlw	32	;' '
  1044  02D8  3453               	retlw	83	;'S'
  1045  02D9  344B               	retlw	75	;'K'
  1046  02DA  3450               	retlw	80	;'P'
  1047  02DB  3453               	retlw	83	;'S'
  1048  02DC  3400               	retlw	0
  1049                           psect	stringtext
  1050                           	
  1051  02DD                     STR_41:	
  1052  02DD  3454               	retlw	84	;'T'
  1053  02DE  3475               	retlw	117	;'u'
  1054  02DF  3472               	retlw	114	;'r'
  1055  02E0  346E               	retlw	110	;'n'
  1056  02E1  3420               	retlw	32	;' '
  1057  02E2  3452               	retlw	82	;'R'
  1058  02E3  3469               	retlw	105	;'i'
  1059  02E4  3467               	retlw	103	;'g'
  1060  02E5  3468               	retlw	104	;'h'
  1061  02E6  3474               	retlw	116	;'t'
  1062  02E7  3421               	retlw	33	;'!'
  1063  02E8  3400               	retlw	0
  1064                           psect	stringtext
  1065                           	
  1066  02E9                     STR_8:	
  1067  02E9  346D               	retlw	109	;'m'
  1068  02EA  345F               	retlw	95	;'_'
  1069  02EB  346C               	retlw	108	;'l'
  1070  02EC  3465               	retlw	101	;'e'
  1071  02ED  3466               	retlw	102	;'f'
  1072  02EE  3474               	retlw	116	;'t'
  1073  02EF  3431               	retlw	49	;'1'
  1074  02F0  3420               	retlw	32	;' '
  1075  02F1  3420               	retlw	32	;' '
  1076  02F2  3420               	retlw	32	;' '
  1077  02F3  3400               	retlw	0
  1078                           psect	stringtext
  1079                           	
  1080  02F4                     STR_5:	
  1081  02F4  346D               	retlw	109	;'m'
  1082  02F5  345F               	retlw	95	;'_'
  1083  02F6  3472               	retlw	114	;'r'
  1084  02F7  3469               	retlw	105	;'i'
  1085  02F8  3467               	retlw	103	;'g'
  1086  02F9  3468               	retlw	104	;'h'
  1087  02FA  3474               	retlw	116	;'t'
  1088  02FB  3431               	retlw	49	;'1'
  1089  02FC  3420               	retlw	32	;' '
  1090  02FD  3420               	retlw	32	;' '
  1091  02FE  3400               	retlw	0
  1092                           psect	stringtext
  1093                           	
  1094  02FF                     STR_12:	
  1095  02FF  344D               	retlw	77	;'M'
  1096  0300  3465               	retlw	101	;'e'
  1097  0301  3461               	retlw	97	;'a'
  1098  0302  3473               	retlw	115	;'s'
  1099  0303  3475               	retlw	117	;'u'
  1100  0304  3472               	retlw	114	;'r'
  1101  0305  3465               	retlw	101	;'e'
  1102  0306  3420               	retlw	32	;' '
  1103  0307  343A               	retlw	58	;':'
  1104  0308  3420               	retlw	32	;' '
  1105  0309  3400               	retlw	0
  1106                           psect	stringtext
  1107                           	
  1108  030A                     STR_43:	
  1109  030A  3454               	retlw	84	;'T'
  1110  030B  3475               	retlw	117	;'u'
  1111  030C  3472               	retlw	114	;'r'
  1112  030D  346E               	retlw	110	;'n'
  1113  030E  3420               	retlw	32	;' '
  1114  030F  344C               	retlw	76	;'L'
  1115  0310  3465               	retlw	101	;'e'
  1116  0311  3466               	retlw	102	;'f'
  1117  0312  3474               	retlw	116	;'t'
  1118  0313  3421               	retlw	33	;'!'
  1119  0314  3400               	retlw	0
  1120                           psect	stringtext
  1121                           	
  1122  0315                     STR_40:	
  1123  0315  3454               	retlw	84	;'T'
  1124  0316  3455               	retlw	85	;'U'
  1125  0317  3452               	retlw	82	;'R'
  1126  0318  344E               	retlw	78	;'N'
  1127  0319  3420               	retlw	32	;' '
  1128  031A  3452               	retlw	82	;'R'
  1129  031B  3449               	retlw	73	;'I'
  1130  031C  3447               	retlw	71	;'G'
  1131  031D  3448               	retlw	72	;'H'
  1132  031E  3454               	retlw	84	;'T'
  1133  031F  3400               	retlw	0
  1134                           psect	stringtext
  1135                           	
  1136  0320                     STR_39:	
  1137  0320  3442               	retlw	66	;'B'
  1138  0321  3461               	retlw	97	;'a'
  1139  0322  3463               	retlw	99	;'c'
  1140  0323  346B               	retlw	107	;'k'
  1141  0324  3477               	retlw	119	;'w'
  1142  0325  3461               	retlw	97	;'a'
  1143  0326  3472               	retlw	114	;'r'
  1144  0327  3464               	retlw	100	;'d'
  1145  0328  3421               	retlw	33	;'!'
  1146  0329  3400               	retlw	0
  1147                           psect	stringtext
  1148                           	
  1149  032A                     STR_29:	
  1150  032A  3443               	retlw	67	;'C'
  1151  032B  346F               	retlw	111	;'o'
  1152  032C  346E               	retlw	110	;'n'
  1153  032D  3467               	retlw	103	;'g'
  1154  032E  3472               	retlw	114	;'r'
  1155  032F  3461               	retlw	97	;'a'
  1156  0330  3474               	retlw	116	;'t'
  1157  0331  3473               	retlw	115	;'s'
  1158  0332  3421               	retlw	33	;'!'
  1159  0333  3400               	retlw	0
  1160                           psect	stringtext
  1161                           	
  1162  0334                     STR_26:	
  1163  0334  344A               	retlw	74	;'J'
  1164  0335  3450               	retlw	80	;'P'
  1165  0336  3437               	retlw	55	;'7'
  1166  0337  3420               	retlw	32	;' '
  1167  0338  3474               	retlw	116	;'t'
  1168  0339  346F               	retlw	111	;'o'
  1169  033A  3420               	retlw	32	;' '
  1170  033B  3455               	retlw	85	;'U'
  1171  033C  3443               	retlw	67	;'C'
  1172  033D  3400               	retlw	0
  1173                           psect	stringtext
  1174                           	
  1175  033E                     STR_42:	
  1176  033E  3454               	retlw	84	;'T'
  1177  033F  3455               	retlw	85	;'U'
  1178  0340  3452               	retlw	82	;'R'
  1179  0341  344E               	retlw	78	;'N'
  1180  0342  3420               	retlw	32	;' '
  1181  0343  344C               	retlw	76	;'L'
  1182  0344  3445               	retlw	69	;'E'
  1183  0345  3446               	retlw	70	;'F'
  1184  0346  3454               	retlw	84	;'T'
  1185  0347  3400               	retlw	0
  1186                           psect	stringtext
  1187                           	
  1188  0348                     STR_10:	
  1189  0348  346D               	retlw	109	;'m'
  1190  0349  345F               	retlw	95	;'_'
  1191  034A  346C               	retlw	108	;'l'
  1192  034B  3465               	retlw	101	;'e'
  1193  034C  3466               	retlw	102	;'f'
  1194  034D  3474               	retlw	116	;'t'
  1195  034E  3432               	retlw	50	;'2'
  1196  034F  3420               	retlw	32	;' '
  1197  0350  3400               	retlw	0
  1198                           psect	stringtext
  1199                           	
  1200  0351                     STR_37:	
  1201  0351  3446               	retlw	70	;'F'
  1202  0352  346F               	retlw	111	;'o'
  1203  0353  3472               	retlw	114	;'r'
  1204  0354  3477               	retlw	119	;'w'
  1205  0355  3461               	retlw	97	;'a'
  1206  0356  3472               	retlw	114	;'r'
  1207  0357  3464               	retlw	100	;'d'
  1208  0358  3421               	retlw	33	;'!'
  1209  0359  3400               	retlw	0
  1210                           psect	stringtext
  1211                           	
  1212  035A                     STR_4:	
  1213  035A  346D               	retlw	109	;'m'
  1214  035B  345F               	retlw	95	;'_'
  1215  035C  3472               	retlw	114	;'r'
  1216  035D  3469               	retlw	105	;'i'
  1217  035E  3467               	retlw	103	;'g'
  1218  035F  3468               	retlw	104	;'h'
  1219  0360  3474               	retlw	116	;'t'
  1220  0361  3432               	retlw	50	;'2'
  1221  0362  3400               	retlw	0
  1222                           psect	stringtext
  1223                           	
  1224  0363                     STR_38:	
  1225  0363  3442               	retlw	66	;'B'
  1226  0364  3441               	retlw	65	;'A'
  1227  0365  3443               	retlw	67	;'C'
  1228  0366  344B               	retlw	75	;'K'
  1229  0367  3457               	retlw	87	;'W'
  1230  0368  3441               	retlw	65	;'A'
  1231  0369  3452               	retlw	82	;'R'
  1232  036A  3444               	retlw	68	;'D'
  1233  036B  3400               	retlw	0
  1234                           psect	stringtext
  1235                           	
  1236  036C                     STR_11:	
  1237  036C  346C               	retlw	108	;'l'
  1238  036D  3465               	retlw	101	;'e'
  1239  036E  3466               	retlw	102	;'f'
  1240  036F  3474               	retlw	116	;'t'
  1241  0370  3420               	retlw	32	;' '
  1242  0371  3420               	retlw	32	;' '
  1243  0372  3420               	retlw	32	;' '
  1244  0373  3400               	retlw	0
  1245                           psect	stringtext
  1246                           	
  1247  0374                     STR_3:	
  1248  0374  3472               	retlw	114	;'r'
  1249  0375  3469               	retlw	105	;'i'
  1250  0376  3467               	retlw	103	;'g'
  1251  0377  3468               	retlw	104	;'h'
  1252  0378  3474               	retlw	116	;'t'
  1253  0379  3420               	retlw	32	;' '
  1254  037A  3420               	retlw	32	;' '
  1255  037B  3400               	retlw	0
  1256                           psect	stringtext
  1257                           	
  1258  037C                     STR_7:	
  1259  037C  346D               	retlw	109	;'m'
  1260  037D  3469               	retlw	105	;'i'
  1261  037E  3464               	retlw	100	;'d'
  1262  037F  3464               	retlw	100	;'d'
  1263  0380  346C               	retlw	108	;'l'
  1264  0381  3465               	retlw	101	;'e'
  1265  0382  3420               	retlw	32	;' '
  1266  0383  3400               	retlw	0
  1267                           psect	stringtext
  1268                           	
  1269  0384                     STR_36:	
  1270  0384  3446               	retlw	70	;'F'
  1271  0385  346F               	retlw	111	;'o'
  1272  0386  3472               	retlw	114	;'r'
  1273  0387  3477               	retlw	119	;'w'
  1274  0388  3461               	retlw	97	;'a'
  1275  0389  3472               	retlw	114	;'r'
  1276  038A  3464               	retlw	100	;'d'
  1277  038B  3400               	retlw	0
  1278                           psect	stringtext
  1279                           	
  1280  038C                     STR_49:	
  1281  038C  3452               	retlw	82	;'R'
  1282  038D  3465               	retlw	101	;'e'
  1283  038E  3461               	retlw	97	;'a'
  1284  038F  3464               	retlw	100	;'d'
  1285  0390  3479               	retlw	121	;'y'
  1286  0391  3421               	retlw	33	;'!'
  1287  0392  3400               	retlw	0
  1288                           psect	stringtext
  1289                           	
  1290  0393                     STR_18:	
  1291  0393  3452               	retlw	82	;'R'
  1292  0394  3461               	retlw	97	;'a'
  1293  0395  346E               	retlw	110	;'n'
  1294  0396  3467               	retlw	103	;'g'
  1295  0397  3465               	retlw	101	;'e'
  1296  0398  343A               	retlw	58	;':'
  1297  0399  3400               	retlw	0
  1298                           psect	stringtext
  1299                           	
  1300  039A                     STR_17:	
  1301  039A  3441               	retlw	65	;'A'
  1302  039B  3444               	retlw	68	;'D'
  1303  039C  3443               	retlw	67	;'C'
  1304  039D  3420               	retlw	32	;' '
  1305  039E  3400               	retlw	0
  1306                           psect	stringtext
  1307                           	
  1308  039F                     STR_15:	
  1309  039F  3450               	retlw	80	;'P'
  1310  03A0  3457               	retlw	87	;'W'
  1311  03A1  344D               	retlw	77	;'M'
  1312  03A2  3420               	retlw	32	;' '
  1313  03A3  3400               	retlw	0
  1314                           psect	stringtext
  1315                           	
  1316  03A4                     STR_16:	
  1317  03A4  3455               	retlw	85	;'U'
  1318  03A5  3441               	retlw	65	;'A'
  1319  03A6  3452               	retlw	82	;'R'
  1320  03A7  3454               	retlw	84	;'T'
  1321  03A8  3400               	retlw	0
  1322                           psect	stringtext
  1323                           	
  1324  03A9                     STR_19:	
  1325  03A9  3469               	retlw	105	;'i'
  1326  03AA  346E               	retlw	110	;'n'
  1327  03AB  3463               	retlw	99	;'c'
  1328  03AC  3468               	retlw	104	;'h'
  1329  03AD  3400               	retlw	0
  1330                           psect	stringtext
  1331                           	
  1332  03AE                     STR_13:	
  1333  03AE  3441               	retlw	65	;'A'
  1334  03AF  3444               	retlw	68	;'D'
  1335  03B0  3443               	retlw	67	;'C'
  1336  03B1  3400               	retlw	0
  1337                           psect	stringtext
  1338                           	
  1339  03B2                     STR_20:	
  1340  03B2  3458               	retlw	88	;'X'
  1341  03B3  3458               	retlw	88	;'X'
  1342  03B4  3458               	retlw	88	;'X'
  1343  03B5  3400               	retlw	0
  1344                           psect	stringtext
  1345                           	
  1346  03B6                     STR_24:	
  1347  03B6  344F               	retlw	79	;'O'
  1348  03B7  3475               	retlw	117	;'u'
  1349  03B8  3474               	retlw	116	;'t'
  1350  03B9  3400               	retlw	0
  1351                           psect	stringtext
  1352                           	
  1353  03BA                     STR_23:	
  1354  03BA  3463               	retlw	99	;'c'
  1355  03BB  346D               	retlw	109	;'m'
  1356  03BC  3400               	retlw	0
  1357                           psect	stringtext
  1358  0284                     STR_14	equ	STR_1+0
  1359  0334                     STR_48	equ	STR_26+0
  1360  0393                     STR_22	equ	STR_18+0
  1361  02F4                     STR_6	equ	STR_5+0
  1362  02E9                     STR_9	equ	STR_8+0
  1363                           	global __end_of__stringdata
  1364  03BD                     __end_of__stringdata:
  1365                           ; #config settings
  1366                           global __CFG_BOREN$OFF
  1367  0000                     __CFG_BOREN$OFF equ 0x0
  1368                           global __CFG_CPD$OFF
  1369  0000                     __CFG_CPD$OFF equ 0x0
  1370                           global __CFG_WRT$OFF
  1371  0000                     __CFG_WRT$OFF equ 0x0
  1372                           global __CFG_FOSC$HS
  1373  0000                     __CFG_FOSC$HS equ 0x0
  1374                           global __CFG_WDTE$OFF
  1375  0000                     __CFG_WDTE$OFF equ 0x0
  1376                           global __CFG_CP$OFF
  1377  0000                     __CFG_CP$OFF equ 0x0
  1378                           global __CFG_LVP$OFF
  1379  0000                     __CFG_LVP$OFF equ 0x0
  1380                           global __CFG_PWRTE$ON
  1381  0000                     __CFG_PWRTE$ON equ 0x0
  1382                           	file	"C:\Users\Ober\AppData\Local\Temp\s7rg."
  1383                           	line	#
  1384                           psect cinit,class=CODE,delta=2
  1385                           global start_initialization
  1386  1528                     start_initialization:
  1387                           
  1388                           global __initialization
  1389  1528                     __initialization:
  1390                           psect	bssCOMMON,class=COMMON,space=1
  1391                           global __pbssCOMMON
  1392  0077                     __pbssCOMMON:
  1393  0077                     _pulse_width:
  1394  0077                            ds      2
  1395                           
  1396  0079                     isr@i:
  1397  0079                            ds      1
  1398                           
  1399                           psect	bssBANK0,class=BANK0,space=1
  1400                           global __pbssBANK0
  1401  005F                     __pbssBANK0:
  1402  005F                     _data:
  1403  005F                            ds      6
  1404                           
  1405  0065                     lcd_dis_num@F1209:
  1406  0065                            ds      5
  1407                           
  1408                           psect	dataBANK1,class=BANK1,space=1
  1409                           global __pdataBANK1
  1410  00A0                     __pdataBANK1:
  1411                           	file	"PR23.c"
  1412                           	line	124
  1413  00A0                     _mode_string:
  1414  00A0                            ds      10
  1415                           
  1416                           ; Clear objects allocated to COMMON
  1417                           psect cinit,class=CODE,delta=2,merge=1
  1418  1528  01F7               	clrf	((__pbssCOMMON)+0)&07Fh
  1419  1529  01F8               	clrf	((__pbssCOMMON)+1)&07Fh
  1420  152A  01F9               	clrf	((__pbssCOMMON)+2)&07Fh
  1421                           ; Clear objects allocated to BANK0
  1422                           psect cinit,class=CODE,delta=2,merge=1
  1423  152B  01DF               	clrf	((__pbssBANK0)+0)&07Fh
  1424  152C  01E0               	clrf	((__pbssBANK0)+1)&07Fh
  1425  152D  01E1               	clrf	((__pbssBANK0)+2)&07Fh
  1426  152E  01E2               	clrf	((__pbssBANK0)+3)&07Fh
  1427  152F  01E3               	clrf	((__pbssBANK0)+4)&07Fh
  1428  1530  01E4               	clrf	((__pbssBANK0)+5)&07Fh
  1429  1531  01E5               	clrf	((__pbssBANK0)+6)&07Fh
  1430  1532  01E6               	clrf	((__pbssBANK0)+7)&07Fh
  1431  1533  01E7               	clrf	((__pbssBANK0)+8)&07Fh
  1432  1534  01E8               	clrf	((__pbssBANK0)+9)&07Fh
  1433  1535  01E9               	clrf	((__pbssBANK0)+10)&07Fh
  1434                           global btemp
  1435                           psect inittext,class=CODE,delta=2
  1436                           global init_fetch,btemp
  1437                           ;	Called with low address in FSR and high address in W
  1438  149D                     init_fetch:
  1439  149D  087E               	movf btemp,w
  1440  149E  008A               	movwf pclath
  1441  149F  087F               	movf btemp+1,w
  1442  14A0  0082               	movwf pc
  1443                           global init_ram
  1444                           ;Called with:
  1445                           ;	high address of idata address in btemp 
  1446                           ;	low address of idata address in btemp+1 
  1447                           ;	low address of data in FSR
  1448                           ;	high address + 1 of data in btemp-1
  1449  14A1                     init_ram:
  1450  14A1  160A  118A  249D   	fcall init_fetch
              160A  118A         
  1451  14A6  0080               	movwf indf,f
  1452  14A7  0A84               	incf fsr,f
  1453  14A8  0804               	movf fsr,w
  1454  14A9  067D               	xorwf btemp-1,w
  1455  14AA  1903               	btfsc status,2
  1456  14AB  3400               	retlw 0
  1457  14AC  0AFF               	incf btemp+1,f
  1458  14AD  1903               	btfsc status,2
  1459  14AE  0AFE               	incf btemp,f
  1460  14AF  2CA1               	goto init_ram
  1461                           ; Initialize objects allocated to BANK1
  1462                           psect cinit,class=CODE,delta=2,merge=1
  1463                           global init_ram, __pidataBANK1
  1464  1536  1383               	bcf	status, 7	;select IRP bank0
  1465  1537  30AA               	movlw low(__pdataBANK1+10)
  1466  1538  00FD               	movwf btemp-1,f
  1467  1539  3014               	movlw high(__pidataBANK1)
  1468  153A  00FE               	movwf btemp,f
  1469  153B  3077               	movlw low(__pidataBANK1)
  1470  153C  00FF               	movwf btemp+1,f
  1471  153D  30A0               	movlw low(__pdataBANK1)
  1472  153E  0084               	movwf fsr,f
  1473  153F  160A  118A  24A1   	fcall init_ram
              160A  118A         
  1474                           psect cinit,class=CODE,delta=2,merge=1
  1475                           global end_of_initialization,__end_of__initialization
  1476                           
  1477                           ;End of C runtime variable initialization code
  1478                           
  1479  1544                     end_of_initialization:
  1480  1544                     __end_of__initialization:clrf status
      + 1544  0183               	clrf	3
  1481  1545  120A  158A  2B54   ljmp _main	;jump to C main() function
  1482                           psect	cstackCOMMON,class=COMMON,space=1
  1483                           global __pcstackCOMMON
  1484  0070                     __pcstackCOMMON:
  1485  0070                     ?_init:	; 0 bytes @ 0x0
  1486  0070                     ?_lcd_init:	; 0 bytes @ 0x0
  1487  0070                     ?_beep:	; 0 bytes @ 0x0
  1488  0070                     ?_lcd_clr:	; 0 bytes @ 0x0
  1489  0070                     ?_lcd_2ndline:	; 0 bytes @ 0x0
  1490  0070                     ?_lcd_clr_line:	; 0 bytes @ 0x0
  1491  0070                     ?_lcd_home:	; 0 bytes @ 0x0
  1492  0070                     ?_line_follow:	; 0 bytes @ 0x0
  1493  0070                     ?_ultrasonic:	; 0 bytes @ 0x0
  1494  0070                     ?_analog_sen:	; 0 bytes @ 0x0
  1495  0070                     ?_wireless_xbee:	; 0 bytes @ 0x0
  1496  0070                     ?_SKPS_PScon:	; 0 bytes @ 0x0
  1497  0070                     ?_lcd_config:	; 0 bytes @ 0x0
  1498  0070                     ?_e_pulse:	; 0 bytes @ 0x0
  1499  0070                     ?_stop:	; 0 bytes @ 0x0
  1500  0070                     ?_forward:	; 0 bytes @ 0x0
  1501  0070                     ?_backward:	; 0 bytes @ 0x0
  1502  0070                     ?_right:	; 0 bytes @ 0x0
  1503  0070                     ?_left:	; 0 bytes @ 0x0
  1504  0070                     ?_isr:	; 0 bytes @ 0x0
  1505  0070                     ??_isr:	; 0 bytes @ 0x0
  1506  0070                     ?_main:	; 0 bytes @ 0x0
  1507  0070                     ?_lcd_char:	; 0 bytes @ 0x0
  1508  0070                     ?_lcd_goto:	; 0 bytes @ 0x0
  1509  0070                     ?_uart_init:	; 0 bytes @ 0x0
  1510  0070                     ?_uart_send:	; 0 bytes @ 0x0
  1511  0070                     ?_adc_init:	; 0 bytes @ 0x0
  1512  0070                     ?_timer1_init:	; 0 bytes @ 0x0
  1513  0070                     ?_interrupt_init:	; 0 bytes @ 0x0
  1514  0070                     ?_enable_global_int:	; 0 bytes @ 0x0
  1515  0070                     ?_disable_global_int:	; 0 bytes @ 0x0
  1516  0070                     ?_uart_rec:	; 1 bytes @ 0x0
  1517  0070                     ?_skps:	; 1 bytes @ 0x0
  1518  0070                     	ds	6
  1519                           	global	isr@receive_data
  1520  0076                     isr@receive_data:	; 1 bytes @ 0x6
  1521  0076                     	ds	1
  1522                           psect	cstackBANK0,class=BANK0,space=1
  1523                           global __pcstackBANK0
  1524  0020                     __pcstackBANK0:
  1525                           	global	?_delay_ms
  1526  0020                     ?_delay_ms:	; 0 bytes @ 0x0
  1527  0020                     ??_stop:	; 0 bytes @ 0x0
  1528  0020                     ??_forward:	; 0 bytes @ 0x0
  1529  0020                     ??_backward:	; 0 bytes @ 0x0
  1530  0020                     ??_right:	; 0 bytes @ 0x0
  1531  0020                     ??_left:	; 0 bytes @ 0x0
  1532  0020                     ??_uart_init:	; 0 bytes @ 0x0
  1533  0020                     ??_uart_send:	; 0 bytes @ 0x0
  1534  0020                     ??_uart_rec:	; 0 bytes @ 0x0
  1535  0020                     ??_adc_init:	; 0 bytes @ 0x0
  1536  0020                     ??_timer1_init:	; 0 bytes @ 0x0
  1537  0020                     ??_interrupt_init:	; 0 bytes @ 0x0
  1538  0020                     ??_enable_global_int:	; 0 bytes @ 0x0
  1539  0020                     ??_disable_global_int:	; 0 bytes @ 0x0
  1540                           	global	?___wmul
  1541  0020                     ?___wmul:	; 2 bytes @ 0x0
  1542                           	global	?___lwdiv
  1543  0020                     ?___lwdiv:	; 2 bytes @ 0x0
  1544                           	global	?___lwmod
  1545  0020                     ?___lwmod:	; 2 bytes @ 0x0
  1546                           	global	?___lmul
  1547  0020                     ?___lmul:	; 4 bytes @ 0x0
  1548                           	global	uart_send@data
  1549  0020                     uart_send@data:	; 1 bytes @ 0x0
  1550                           	global	___wmul@multiplier
  1551  0020                     ___wmul@multiplier:	; 2 bytes @ 0x0
  1552                           	global	___lwdiv@divisor
  1553  0020                     ___lwdiv@divisor:	; 2 bytes @ 0x0
  1554                           	global	___lwmod@divisor
  1555  0020                     ___lwmod@divisor:	; 2 bytes @ 0x0
  1556                           	global	delay_ms@data
  1557  0020                     delay_ms@data:	; 4 bytes @ 0x0
  1558                           	global	___lmul@multiplier
  1559  0020                     ___lmul@multiplier:	; 4 bytes @ 0x0
  1560  0020                     	ds	1
  1561                           	global	?_uart_string
  1562  0021                     ?_uart_string:	; 0 bytes @ 0x1
  1563  0021                     ??_skps:	; 0 bytes @ 0x1
  1564                           	global	skps@data
  1565  0021                     skps@data:	; 1 bytes @ 0x1
  1566                           	global	uart_string@string
  1567  0021                     uart_string@string:	; 2 bytes @ 0x1
  1568  0021                     	ds	1
  1569                           	global	___wmul@multiplicand
  1570  0022                     ___wmul@multiplicand:	; 2 bytes @ 0x2
  1571                           	global	___lwdiv@dividend
  1572  0022                     ___lwdiv@dividend:	; 2 bytes @ 0x2
  1573                           	global	___lwmod@dividend
  1574  0022                     ___lwmod@dividend:	; 2 bytes @ 0x2
  1575  0022                     	ds	1
  1576  0023                     ??_uart_string:	; 0 bytes @ 0x3
  1577                           	global	?_uart_string_nl
  1578  0023                     ?_uart_string_nl:	; 0 bytes @ 0x3
  1579                           	global	uart_string_nl@string
  1580  0023                     uart_string_nl@string:	; 2 bytes @ 0x3
  1581  0023                     	ds	1
  1582  0024                     ??_delay_ms:	; 0 bytes @ 0x4
  1583  0024                     ??___wmul:	; 0 bytes @ 0x4
  1584  0024                     ??___lwdiv:	; 0 bytes @ 0x4
  1585  0024                     ??___lwmod:	; 0 bytes @ 0x4
  1586                           	global	___wmul@product
  1587  0024                     ___wmul@product:	; 2 bytes @ 0x4
  1588                           	global	___lmul@multiplicand
  1589  0024                     ___lmul@multiplicand:	; 4 bytes @ 0x4
  1590  0024                     	ds	1
  1591  0025                     ??_uart_string_nl:	; 0 bytes @ 0x5
  1592                           	global	___lwmod@counter
  1593  0025                     ___lwmod@counter:	; 1 bytes @ 0x5
  1594                           	global	___lwdiv@quotient
  1595  0025                     ___lwdiv@quotient:	; 2 bytes @ 0x5
  1596  0025                     	ds	2
  1597                           	global	___lwdiv@counter
  1598  0027                     ___lwdiv@counter:	; 1 bytes @ 0x7
  1599  0027                     	ds	1
  1600  0028                     ??_beep:	; 0 bytes @ 0x8
  1601  0028                     ??_lcd_config:	; 0 bytes @ 0x8
  1602  0028                     ??_e_pulse:	; 0 bytes @ 0x8
  1603  0028                     ??_lcd_char:	; 0 bytes @ 0x8
  1604  0028                     ??___lmul:	; 0 bytes @ 0x8
  1605                           	global	beep@count
  1606  0028                     beep@count:	; 1 bytes @ 0x8
  1607                           	global	lcd_config@data
  1608  0028                     lcd_config@data:	; 1 bytes @ 0x8
  1609                           	global	lcd_char@data
  1610  0028                     lcd_char@data:	; 1 bytes @ 0x8
  1611  0028                     	ds	1
  1612  0029                     ??_init:	; 0 bytes @ 0x9
  1613  0029                     ??_lcd_init:	; 0 bytes @ 0x9
  1614  0029                     ??_lcd_clr:	; 0 bytes @ 0x9
  1615                           	global	?_lcd_string
  1616  0029                     ?_lcd_string:	; 0 bytes @ 0x9
  1617  0029                     ??_lcd_2ndline:	; 0 bytes @ 0x9
  1618  0029                     ??_lcd_clr_line:	; 0 bytes @ 0x9
  1619  0029                     ??_lcd_home:	; 0 bytes @ 0x9
  1620  0029                     ??_lcd_goto:	; 0 bytes @ 0x9
  1621                           	global	?_lcd_dis_num
  1622  0029                     ?_lcd_dis_num:	; 0 bytes @ 0x9
  1623                           	global	lcd_goto@data
  1624  0029                     lcd_goto@data:	; 1 bytes @ 0x9
  1625                           	global	lcd_string@s
  1626  0029                     lcd_string@s:	; 2 bytes @ 0x9
  1627                           	global	lcd_dis_num@value
  1628  0029                     lcd_dis_num@value:	; 2 bytes @ 0x9
  1629                           	global	___lmul@product
  1630  0029                     ___lmul@product:	; 4 bytes @ 0x9
  1631  0029                     	ds	1
  1632                           	global	lcd_clr_line@line
  1633  002A                     lcd_clr_line@line:	; 1 bytes @ 0xA
  1634  002A                     	ds	1
  1635  002B                     ??_lcd_string:	; 0 bytes @ 0xB
  1636  002B                     ??_line_follow:	; 0 bytes @ 0xB
  1637  002B                     ??_lcd_dis_num:	; 0 bytes @ 0xB
  1638                           	global	lcd_clr_line@i
  1639  002B                     lcd_clr_line@i:	; 1 bytes @ 0xB
  1640  002B                     	ds	1
  1641  002C                     ??_wireless_xbee:	; 0 bytes @ 0xC
  1642  002C                     ??_SKPS_PScon:	; 0 bytes @ 0xC
  1643                           	global	line_follow@memory
  1644  002C                     line_follow@memory:	; 1 bytes @ 0xC
  1645                           	global	lcd_dis_num@digit
  1646  002C                     lcd_dis_num@digit:	; 5 bytes @ 0xC
  1647  002C                     	ds	1
  1648                           	global	?___lldiv
  1649  002D                     ?___lldiv:	; 4 bytes @ 0xD
  1650                           	global	wireless_xbee@uart_data
  1651  002D                     wireless_xbee@uart_data:	; 1 bytes @ 0xD
  1652                           	global	SKPS_PScon@up_v
  1653  002D                     SKPS_PScon@up_v:	; 1 bytes @ 0xD
  1654                           	global	___lldiv@divisor
  1655  002D                     ___lldiv@divisor:	; 4 bytes @ 0xD
  1656  002D                     	ds	1
  1657                           	global	SKPS_PScon@down_v
  1658  002E                     SKPS_PScon@down_v:	; 1 bytes @ 0xE
  1659  002E                     	ds	1
  1660                           	global	SKPS_PScon@left_v
  1661  002F                     SKPS_PScon@left_v:	; 1 bytes @ 0xF
  1662  002F                     	ds	1
  1663                           	global	SKPS_PScon@right_v
  1664  0030                     SKPS_PScon@right_v:	; 1 bytes @ 0x10
  1665  0030                     	ds	1
  1666                           	global	lcd_dis_num@non_zero
  1667  0031                     lcd_dis_num@non_zero:	; 1 bytes @ 0x11
  1668                           	global	___lldiv@dividend
  1669  0031                     ___lldiv@dividend:	; 4 bytes @ 0x11
  1670  0031                     	ds	1
  1671                           	global	lcd_dis_num@num_digit
  1672  0032                     lcd_dis_num@num_digit:	; 1 bytes @ 0x12
  1673  0032                     	ds	1
  1674                           	global	lcd_dis_num@base
  1675  0033                     lcd_dis_num@base:	; 2 bytes @ 0x13
  1676  0033                     	ds	2
  1677  0035                     ??___lldiv:	; 0 bytes @ 0x15
  1678                           	global	lcd_dis_num@j
  1679  0035                     lcd_dis_num@j:	; 1 bytes @ 0x15
  1680  0035                     	ds	1
  1681                           	global	lcd_dis_num@i
  1682  0036                     lcd_dis_num@i:	; 1 bytes @ 0x16
  1683                           	global	___lldiv@quotient
  1684  0036                     ___lldiv@quotient:	; 4 bytes @ 0x16
  1685  0036                     	ds	4
  1686                           	global	___lldiv@counter
  1687  003A                     ___lldiv@counter:	; 1 bytes @ 0x1A
  1688  003A                     	ds	1
  1689                           	global	?_read_adc
  1690  003B                     ?_read_adc:	; 2 bytes @ 0x1B
  1691  003B                     	ds	2
  1692  003D                     ??_read_adc:	; 0 bytes @ 0x1D
  1693  003D                     	ds	8
  1694                           	global	read_adc@channel
  1695  0045                     read_adc@channel:	; 1 bytes @ 0x25
  1696  0045                     	ds	1
  1697                           	global	read_adc@i
  1698  0046                     read_adc@i:	; 1 bytes @ 0x26
  1699  0046                     	ds	1
  1700                           	global	read_adc@result
  1701  0047                     read_adc@result:	; 4 bytes @ 0x27
  1702  0047                     	ds	4
  1703                           	global	read_adc@temp_result
  1704  004B                     read_adc@temp_result:	; 2 bytes @ 0x2B
  1705  004B                     	ds	2
  1706  004D                     ??_analog_sen:	; 0 bytes @ 0x2D
  1707                           	global	?_us_value
  1708  004D                     ?_us_value:	; 2 bytes @ 0x2D
  1709  004D                     	ds	2
  1710  004F                     ??_us_value:	; 0 bytes @ 0x2F
  1711  004F                     	ds	2
  1712                           	global	analog_sen@distance
  1713  0051                     analog_sen@distance:	; 1 bytes @ 0x31
  1714  0051                     	ds	1
  1715                           	global	analog_sen@voltage
  1716  0052                     analog_sen@voltage:	; 4 bytes @ 0x32
  1717  0052                     	ds	1
  1718                           	global	us_value@mode
  1719  0053                     us_value@mode:	; 1 bytes @ 0x33
  1720  0053                     	ds	1
  1721                           	global	us_value@value
  1722  0054                     us_value@value:	; 4 bytes @ 0x34
  1723  0054                     	ds	4
  1724  0058                     ??_ultrasonic:	; 0 bytes @ 0x38
  1725  0058                     	ds	1
  1726                           	global	ultrasonic@ez1_mode
  1727  0059                     ultrasonic@ez1_mode:	; 1 bytes @ 0x39
  1728  0059                     	ds	1
  1729                           	global	ultrasonic@distance
  1730  005A                     ultrasonic@distance:	; 2 bytes @ 0x3A
  1731  005A                     	ds	2
  1732  005C                     ??_main:	; 0 bytes @ 0x3C
  1733  005C                     	ds	1
  1734                           	global	main@i
  1735  005D                     main@i:	; 1 bytes @ 0x3D
  1736  005D                     	ds	1
  1737                           	global	main@mode
  1738  005E                     main@mode:	; 1 bytes @ 0x3E
  1739  005E                     	ds	1
  1740                           ;!
  1741                           ;!Data Sizes:
  1742                           ;!    Strings     524
  1743                           ;!    Constant    159
  1744                           ;!    Data        10
  1745                           ;!    BSS         14
  1746                           ;!    Persistent  0
  1747                           ;!    Stack       0
  1748                           ;!
  1749                           ;!Auto Spaces:
  1750                           ;!    Space          Size  Autos    Used
  1751                           ;!    COMMON           14      7      10
  1752                           ;!    BANK0            80     63      74
  1753                           ;!    BANK1            80      0      10
  1754                           ;!    BANK3            96      0       0
  1755                           ;!    BANK2            96      0       0
  1756                           
  1757                           ;!
  1758                           ;!Pointer List with Targets:
  1759                           ;!
  1760                           ;!    ?_us_value	unsigned int  size(1) Largest target is 0
  1761                           ;!
  1762                           ;!    ?___wmul	unsigned int  size(1) Largest target is 0
  1763                           ;!
  1764                           ;!    ?___lmul	unsigned long  size(1) Largest target is 0
  1765                           ;!
  1766                           ;!    ?_read_adc	unsigned int  size(1) Largest target is 0
  1767                           ;!
  1768                           ;!    ?___lldiv	unsigned long  size(1) Largest target is 0
  1769                           ;!
  1770                           ;!    ?___lwmod	unsigned int  size(1) Largest target is 4
  1771                           ;!		 -> analog_sen@voltage(BANK0[4]), 
  1772                           ;!
  1773                           ;!    ?___lwdiv	unsigned int  size(1) Largest target is 0
  1774                           ;!
  1775                           ;!    uart_string_nl@string	PTR const unsigned char  size(2) Largest target is 33
  1776                           ;!		 -> STR_45(CODE[17]), STR_43(CODE[11]), STR_41(CODE[12]), STR_39(CODE[10]), 
  1777                           ;!		 -> STR_37(CODE[9]), STR_35(CODE[33]), STR_34(CODE[21]), STR_33(CODE[22]), 
  1778                           ;!		 -> STR_32(CODE[20]), STR_31(CODE[19]), STR_30(CODE[29]), STR_29(CODE[10]), 
  1779                           ;!
  1780                           ;!    uart_string@string	PTR const unsigned char  size(2) Largest target is 33
  1781                           ;!		 -> STR_45(CODE[17]), STR_43(CODE[11]), STR_41(CODE[12]), STR_39(CODE[10]), 
  1782                           ;!		 -> STR_37(CODE[9]), STR_35(CODE[33]), STR_34(CODE[21]), STR_33(CODE[22]), 
  1783                           ;!		 -> STR_32(CODE[20]), STR_31(CODE[19]), STR_30(CODE[29]), STR_29(CODE[10]), 
  1784                           ;!
  1785                           ;!    lcd_string@s	PTR const unsigned char  size(2) Largest target is 18
  1786                           ;!		 -> STR_49(CODE[7]), STR_48(CODE[10]), STR_47(CODE[13]), STR_46(CODE[15]), 
  1787                           ;!		 -> STR_44(CODE[16]), STR_42(CODE[10]), STR_40(CODE[11]), STR_38(CODE[9]), 
  1788                           ;!		 -> STR_36(CODE[8]), STR_28(CODE[18]), STR_27(CODE[15]), STR_26(CODE[10]), 
  1789                           ;!		 -> STR_25(CODE[16]), STR_24(CODE[4]), STR_23(CODE[3]), STR_22(CODE[7]), 
  1790                           ;!		 -> STR_21(CODE[15]), STR_20(CODE[4]), STR_19(CODE[5]), STR_18(CODE[7]), 
  1791                           ;!		 -> STR_17(CODE[5]), STR_16(CODE[5]), STR_15(CODE[5]), STR_14(CODE[16]), 
  1792                           ;!		 -> STR_13(CODE[4]), STR_12(CODE[11]), STR_11(CODE[8]), STR_10(CODE[9]), 
  1793                           ;!		 -> STR_9(CODE[11]), STR_8(CODE[11]), STR_7(CODE[8]), STR_6(CODE[11]), 
  1794                           ;!		 -> STR_5(CODE[11]), STR_4(CODE[9]), STR_3(CODE[8]), STR_2(CODE[15]), 
  1795                           ;!		 -> STR_1(CODE[16]), code_version(CODE[17]), pr23_rev(CODE[14]), multifunction_robot
                                 (CODE[17]), 
  1796                           ;!		 -> diy_project(CODE[16]), cytron_website(CODE[15]), cytron_tech(CODE[14]), SKPS(COD
                                 E[7]), 
  1797                           ;!		 -> XB(CODE[9]), AS(CODE[16]), US(CODE[17]), line(CODE[17]), 
  1798                           ;!
  1799                           ;!    mode_string	PTR const unsigned char [5] size(2) Largest target is 17
  1800                           ;!		 -> SKPS(CODE[7]), XB(CODE[9]), AS(CODE[16]), US(CODE[17]), 
  1801                           ;!		 -> line(CODE[17]), 
  1802                           ;!
  1803                           
  1804                           
  1805                           ;!
  1806                           ;!Critical Paths under _main in COMMON
  1807                           ;!
  1808                           ;!    None.
  1809                           ;!
  1810                           ;!Critical Paths under _isr in COMMON
  1811                           ;!
  1812                           ;!    None.
  1813                           ;!
  1814                           ;!Critical Paths under _main in BANK0
  1815                           ;!
  1816                           ;!    _main->_ultrasonic
  1817                           ;!    _lcd_init->_lcd_config
  1818                           ;!    _line_follow->_lcd_string
  1819                           ;!    _ultrasonic->_us_value
  1820                           ;!    _analog_sen->_read_adc
  1821                           ;!    _wireless_xbee->_lcd_clr_line
  1822                           ;!    _SKPS_PScon->_lcd_clr_line
  1823                           ;!    _beep->_delay_ms
  1824                           ;!    _lcd_clr->_lcd_config
  1825                           ;!    _lcd_string->_lcd_char
  1826                           ;!    _lcd_clr_line->_lcd_char
  1827                           ;!    _lcd_2ndline->_lcd_config
  1828                           ;!    _lcd_home->_lcd_config
  1829                           ;!    _lcd_goto->_lcd_config
  1830                           ;!    _lcd_config->_delay_ms
  1831                           ;!    _lcd_dis_num->_lcd_char
  1832                           ;!    _lcd_char->_delay_ms
  1833                           ;!    _e_pulse->_delay_ms
  1834                           ;!    _uart_string_nl->_uart_string
  1835                           ;!    _uart_string->_uart_send
  1836                           ;!    _skps->_uart_send
  1837                           ;!    _us_value->_read_adc
  1838                           ;!    _read_adc->___lldiv
  1839                           ;!    ___lldiv->___lmul
  1840                           ;!
  1841                           ;!Critical Paths under _isr in BANK0
  1842                           ;!
  1843                           ;!    None.
  1844                           ;!
  1845                           ;!Critical Paths under _main in BANK1
  1846                           ;!
  1847                           ;!    None.
  1848                           ;!
  1849                           ;!Critical Paths under _isr in BANK1
  1850                           ;!
  1851                           ;!    None.
  1852                           ;!
  1853                           ;!Critical Paths under _main in BANK3
  1854                           ;!
  1855                           ;!    None.
  1856                           ;!
  1857                           ;!Critical Paths under _isr in BANK3
  1858                           ;!
  1859                           ;!    None.
  1860                           ;!
  1861                           ;!Critical Paths under _main in BANK2
  1862                           ;!
  1863                           ;!    None.
  1864                           ;!
  1865                           ;!Critical Paths under _isr in BANK2
  1866                           ;!
  1867                           ;!    None.
  1868                           
  1869 ;;
  1870 ;;Main: autosize = 0, tempsize = 1, incstack = 0, save=0
  1871 ;;
  1872                           
  1873                           ;!
  1874                           ;!Call Graph Tables:
  1875                           ;!
  1876                           ;! ---------------------------------------------------------------------------------
  1877                           ;! (Depth) Function   	        Calls       Base Space   Used Autos Params    Refs
  1878                           ;! ---------------------------------------------------------------------------------
  1879                           ;! (0) _main                                                 3     3      0   10799
  1880                           ;!                                             60 BANK0      3     3      0
  1881                           ;!                               _init
  1882                           ;!                           _lcd_init
  1883                           ;!                               _beep
  1884                           ;!                            _lcd_clr
  1885                           ;!                         _lcd_string
  1886                           ;!                        _lcd_2ndline
  1887                           ;!                           _delay_ms
  1888                           ;!                       _lcd_clr_line
  1889                           ;!                           _lcd_home
  1890                           ;!                        _line_follow
  1891                           ;!                         _ultrasonic
  1892                           ;!                         _analog_sen
  1893                           ;!                      _wireless_xbee
  1894                           ;!                         _SKPS_PScon
  1895                           ;! ---------------------------------------------------------------------------------
  1896                           ;! (1) _init                                                 0     0      0      97
  1897                           ;!                           _adc_init
  1898                           ;!                     _interrupt_init
  1899                           ;!                 _disable_global_int
  1900                           ;!                           _lcd_init
  1901                           ;!                               _stop
  1902                           ;! ---------------------------------------------------------------------------------
  1903                           ;! (1) _lcd_init                                             0     0      0      97
  1904                           ;!                           _delay_ms
  1905                           ;!                         _lcd_config
  1906                           ;! ---------------------------------------------------------------------------------
  1907                           ;! (1) _line_follow                                          2     2      0     435
  1908                           ;!                                             11 BANK0      2     2      0
  1909                           ;!                            _lcd_clr
  1910                           ;!                         _lcd_string
  1911                           ;!                            _forward
  1912                           ;!                        _lcd_2ndline
  1913                           ;! ---------------------------------------------------------------------------------
  1914                           ;! (1) _ultrasonic                                           4     4      0    3287
  1915                           ;!                                             56 BANK0      4     4      0
  1916                           ;!                            _lcd_clr
  1917                           ;!                         _lcd_string
  1918                           ;!                           _lcd_goto
  1919                           ;!                        _lcd_2ndline
  1920                           ;!                               _beep
  1921                           ;!                       _lcd_clr_line
  1922                           ;!                        _timer1_init
  1923                           ;!                  _enable_global_int
  1924                           ;!                          _uart_init
  1925                           ;!                           _delay_ms
  1926                           ;!                 _disable_global_int
  1927                           ;!                           _us_value
  1928                           ;!                               _stop
  1929                           ;!                        _lcd_dis_num
  1930                           ;!                            _forward
  1931                           ;!                           _backward
  1932                           ;! ---------------------------------------------------------------------------------
  1933                           ;! (1) _analog_sen                                           9     9      0    2654
  1934                           ;!                                             45 BANK0      9     9      0
  1935                           ;!                            _lcd_clr
  1936                           ;!                         _lcd_string
  1937                           ;!                        _lcd_2ndline
  1938                           ;!                           _lcd_goto
  1939                           ;!                           _read_adc
  1940                           ;!                             ___lmul
  1941                           ;!                            ___lldiv
  1942                           ;!                        _lcd_dis_num
  1943                           ;!                           _lcd_char
  1944                           ;!                           _backward
  1945                           ;!                               _stop
  1946                           ;!                            _forward
  1947                           ;! ---------------------------------------------------------------------------------
  1948                           ;! (1) _wireless_xbee                                        2     2      0    1170
  1949                           ;!                                             12 BANK0      2     2      0
  1950                           ;!                 _disable_global_int
  1951                           ;!                          _uart_init
  1952                           ;!                            _lcd_clr
  1953                           ;!                         _lcd_string
  1954                           ;!                        _lcd_2ndline
  1955                           ;!                           _delay_ms
  1956                           ;!                       _lcd_clr_line
  1957                           ;!                           _uart_rec
  1958                           ;!                               _beep
  1959                           ;!                     _uart_string_nl
  1960                           ;!                               _stop
  1961                           ;!                            _forward
  1962                           ;!                           _lcd_goto
  1963                           ;!                           _backward
  1964                           ;!                              _right
  1965                           ;!                               _left
  1966                           ;! ---------------------------------------------------------------------------------
  1967                           ;! (1) _SKPS_PScon                                           5     5      0    2072
  1968                           ;!                                             12 BANK0      5     5      0
  1969                           ;!                 _disable_global_int
  1970                           ;!                               _stop
  1971                           ;!                            _lcd_clr
  1972                           ;!                         _lcd_string
  1973                           ;!                        _lcd_2ndline
  1974                           ;!                           _delay_ms
  1975                           ;!                       _lcd_clr_line
  1976                           ;!                           _lcd_goto
  1977                           ;!                          _uart_init
  1978                           ;!                               _beep
  1979                           ;!                               _skps
  1980                           ;!                            _forward
  1981                           ;!                           _backward
  1982                           ;!                               _left
  1983                           ;!                              _right
  1984                           ;! ---------------------------------------------------------------------------------
  1985                           ;! (2) _beep                                                 1     1      0      53
  1986                           ;!                                              8 BANK0      1     1      0
  1987                           ;!                           _delay_ms
  1988                           ;! ---------------------------------------------------------------------------------
  1989                           ;! (2) _lcd_clr                                              0     0      0      97
  1990                           ;!                         _lcd_config
  1991                           ;!                           _delay_ms
  1992                           ;! ---------------------------------------------------------------------------------
  1993                           ;! (2) _lcd_string                                           2     0      2     171
  1994                           ;!                                              9 BANK0      2     0      2
  1995                           ;!                           _lcd_char
  1996                           ;! ---------------------------------------------------------------------------------
  1997                           ;! (2) _lcd_clr_line                                         3     3      0     358
  1998                           ;!                                              9 BANK0      3     3      0
  1999                           ;!                           _lcd_home
  2000                           ;!                        _lcd_2ndline
  2001                           ;!                           _lcd_char
  2002                           ;! ---------------------------------------------------------------------------------
  2003                           ;! (3) _lcd_2ndline                                          0     0      0      75
  2004                           ;!                         _lcd_config
  2005                           ;! ---------------------------------------------------------------------------------
  2006                           ;! (3) _lcd_home                                             0     0      0      75
  2007                           ;!                         _lcd_config
  2008                           ;! ---------------------------------------------------------------------------------
  2009                           ;! (2) _lcd_goto                                             1     1      0     106
  2010                           ;!                                              9 BANK0      1     1      0
  2011                           ;!                         _lcd_config
  2012                           ;! ---------------------------------------------------------------------------------
  2013                           ;! (3) _lcd_config                                           1     1      0      75
  2014                           ;!                                              8 BANK0      1     1      0
  2015                           ;!                           _delay_ms
  2016                           ;!                            _e_pulse
  2017                           ;! ---------------------------------------------------------------------------------
  2018                           ;! (2) _lcd_dis_num                                         14    12      2    1166
  2019                           ;!                                              9 BANK0     14    12      2
  2020                           ;!                            ___lwdiv
  2021                           ;!                            ___lwmod
  2022                           ;!                           _lcd_char
  2023                           ;! ---------------------------------------------------------------------------------
  2024                           ;! (3) _lcd_char                                             1     1      0      75
  2025                           ;!                                              8 BANK0      1     1      0
  2026                           ;!                           _delay_ms
  2027                           ;!                            _e_pulse
  2028                           ;! ---------------------------------------------------------------------------------
  2029                           ;! (4) _e_pulse                                              0     0      0      22
  2030                           ;!                           _delay_ms
  2031                           ;! ---------------------------------------------------------------------------------
  2032                           ;! (2) _uart_init                                            0     0      0       0
  2033                           ;! ---------------------------------------------------------------------------------
  2034                           ;! (2) _uart_string_nl                                       2     0      2     158
  2035                           ;!                                              3 BANK0      2     0      2
  2036                           ;!                        _uart_string
  2037                           ;!                          _uart_send
  2038                           ;! ---------------------------------------------------------------------------------
  2039                           ;! (3) _uart_string                                          2     0      2      96
  2040                           ;!                                              1 BANK0      2     0      2
  2041                           ;!                          _uart_send
  2042                           ;! ---------------------------------------------------------------------------------
  2043                           ;! (2) _skps                                                 1     1      0      62
  2044                           ;!                                              1 BANK0      1     1      0
  2045                           ;!                          _uart_send
  2046                           ;!                           _uart_rec
  2047                           ;! ---------------------------------------------------------------------------------
  2048                           ;! (3) _uart_send                                            1     1      0      31
  2049                           ;!                                              0 BANK0      1     1      0
  2050                           ;! ---------------------------------------------------------------------------------
  2051                           ;! (3) _uart_rec                                             0     0      0       0
  2052                           ;! ---------------------------------------------------------------------------------
  2053                           ;! (2) _adc_init                                             0     0      0       0
  2054                           ;! ---------------------------------------------------------------------------------
  2055                           ;! (2) _timer1_init                                          0     0      0       0
  2056                           ;! ---------------------------------------------------------------------------------
  2057                           ;! (2) _interrupt_init                                       0     0      0       0
  2058                           ;! ---------------------------------------------------------------------------------
  2059                           ;! (2) _enable_global_int                                    0     0      0       0
  2060                           ;! ---------------------------------------------------------------------------------
  2061                           ;! (2) _disable_global_int                                   0     0      0       0
  2062                           ;! ---------------------------------------------------------------------------------
  2063                           ;! (2) _stop                                                 0     0      0       0
  2064                           ;! ---------------------------------------------------------------------------------
  2065                           ;! (2) _forward                                              0     0      0       0
  2066                           ;! ---------------------------------------------------------------------------------
  2067                           ;! (2) _us_value                                            11     9      2     945
  2068                           ;!                                             45 BANK0     11     9      2
  2069                           ;!                           _read_adc
  2070                           ;!                             ___lmul
  2071                           ;!                            ___lldiv
  2072                           ;!                             ___wmul
  2073                           ;! ---------------------------------------------------------------------------------
  2074                           ;! (2) _read_adc                                            18    16      2     413
  2075                           ;!                                             27 BANK0     18    16      2
  2076                           ;!                           _delay_ms
  2077                           ;!                            ___lldiv
  2078                           ;! ---------------------------------------------------------------------------------
  2079                           ;! (3) _delay_ms                                             8     4      4      22
  2080                           ;!                                              0 BANK0      8     4      4
  2081                           ;! ---------------------------------------------------------------------------------
  2082                           ;! (2) _backward                                             0     0      0       0
  2083                           ;! ---------------------------------------------------------------------------------
  2084                           ;! (2) _right                                                0     0      0       0
  2085                           ;! ---------------------------------------------------------------------------------
  2086                           ;! (2) _left                                                 0     0      0       0
  2087                           ;! ---------------------------------------------------------------------------------
  2088                           ;! (3) ___wmul                                               6     2      4     136
  2089                           ;!                                              0 BANK0      6     2      4
  2090                           ;! ---------------------------------------------------------------------------------
  2091                           ;! (3) ___lwdiv                                              8     4      4     162
  2092                           ;!                                              0 BANK0      8     4      4
  2093                           ;! ---------------------------------------------------------------------------------
  2094                           ;! (3) ___lwmod                                              6     2      4     159
  2095                           ;!                                              0 BANK0      6     2      4
  2096                           ;! ---------------------------------------------------------------------------------
  2097                           ;! (2) ___lmul                                              13     5      8      92
  2098                           ;!                                              0 BANK0     13     5      8
  2099                           ;! ---------------------------------------------------------------------------------
  2100                           ;! (2) ___lldiv                                             14     6      8     162
  2101                           ;!                                             13 BANK0     14     6      8
  2102                           ;!                             ___lmul (ARG)
  2103                           ;! ---------------------------------------------------------------------------------
  2104                           ;! Estimated maximum stack depth 4
  2105                           ;! ---------------------------------------------------------------------------------
  2106                           ;! (Depth) Function   	        Calls       Base Space   Used Autos Params    Refs
  2107                           ;! ---------------------------------------------------------------------------------
  2108                           ;! (7) _isr                                                  7     7      0      68
  2109                           ;!                                              0 COMMON     7     7      0
  2110                           ;! ---------------------------------------------------------------------------------
  2111                           ;! Estimated maximum stack depth 7
  2112                           ;! ---------------------------------------------------------------------------------
  2113                           ;!
  2114                           ;! Call Graph Graphs:
  2115                           ;!
  2116                           ;! _main (ROOT)
  2117                           ;!   _init
  2118                           ;!     _adc_init
  2119                           ;!     _interrupt_init
  2120                           ;!     _disable_global_int
  2121                           ;!     _lcd_init
  2122                           ;!       _delay_ms
  2123                           ;!       _lcd_config
  2124                           ;!         _delay_ms
  2125                           ;!         _e_pulse
  2126                           ;!           _delay_ms
  2127                           ;!     _stop
  2128                           ;!   _lcd_init
  2129                           ;!     _delay_ms
  2130                           ;!     _lcd_config
  2131                           ;!       _delay_ms
  2132                           ;!       _e_pulse
  2133                           ;!         _delay_ms
  2134                           ;!   _beep
  2135                           ;!     _delay_ms
  2136                           ;!   _lcd_clr
  2137                           ;!     _lcd_config
  2138                           ;!       _delay_ms
  2139                           ;!       _e_pulse
  2140                           ;!         _delay_ms
  2141                           ;!     _delay_ms
  2142                           ;!   _lcd_string
  2143                           ;!     _lcd_char
  2144                           ;!       _delay_ms
  2145                           ;!       _e_pulse
  2146                           ;!         _delay_ms
  2147                           ;!   _lcd_2ndline
  2148                           ;!     _lcd_config
  2149                           ;!       _delay_ms
  2150                           ;!       _e_pulse
  2151                           ;!         _delay_ms
  2152                           ;!   _delay_ms
  2153                           ;!   _lcd_clr_line
  2154                           ;!     _lcd_home
  2155                           ;!       _lcd_config
  2156                           ;!         _delay_ms
  2157                           ;!         _e_pulse
  2158                           ;!           _delay_ms
  2159                           ;!     _lcd_2ndline
  2160                           ;!       _lcd_config
  2161                           ;!         _delay_ms
  2162                           ;!         _e_pulse
  2163                           ;!           _delay_ms
  2164                           ;!     _lcd_char
  2165                           ;!       _delay_ms
  2166                           ;!       _e_pulse
  2167                           ;!         _delay_ms
  2168                           ;!   _lcd_home
  2169                           ;!     _lcd_config
  2170                           ;!       _delay_ms
  2171                           ;!       _e_pulse
  2172                           ;!         _delay_ms
  2173                           ;!   _line_follow
  2174                           ;!     _lcd_clr
  2175                           ;!       _lcd_config
  2176                           ;!         _delay_ms
  2177                           ;!         _e_pulse
  2178                           ;!           _delay_ms
  2179                           ;!       _delay_ms
  2180                           ;!     _lcd_string
  2181                           ;!       _lcd_char
  2182                           ;!         _delay_ms
  2183                           ;!         _e_pulse
  2184                           ;!           _delay_ms
  2185                           ;!     _forward
  2186                           ;!     _lcd_2ndline
  2187                           ;!       _lcd_config
  2188                           ;!         _delay_ms
  2189                           ;!         _e_pulse
  2190                           ;!           _delay_ms
  2191                           ;!   _ultrasonic
  2192                           ;!     _lcd_clr
  2193                           ;!       _lcd_config
  2194                           ;!         _delay_ms
  2195                           ;!         _e_pulse
  2196                           ;!           _delay_ms
  2197                           ;!       _delay_ms
  2198                           ;!     _lcd_string
  2199                           ;!       _lcd_char
  2200                           ;!         _delay_ms
  2201                           ;!         _e_pulse
  2202                           ;!           _delay_ms
  2203                           ;!     _lcd_goto
  2204                           ;!       _lcd_config
  2205                           ;!         _delay_ms
  2206                           ;!         _e_pulse
  2207                           ;!           _delay_ms
  2208                           ;!     _lcd_2ndline
  2209                           ;!       _lcd_config
  2210                           ;!         _delay_ms
  2211                           ;!         _e_pulse
  2212                           ;!           _delay_ms
  2213                           ;!     _beep
  2214                           ;!       _delay_ms
  2215                           ;!     _lcd_clr_line
  2216                           ;!       _lcd_home
  2217                           ;!         _lcd_config
  2218                           ;!           _delay_ms
  2219                           ;!           _e_pulse
  2220                           ;!             _delay_ms
  2221                           ;!       _lcd_2ndline
  2222                           ;!         _lcd_config
  2223                           ;!           _delay_ms
  2224                           ;!           _e_pulse
  2225                           ;!             _delay_ms
  2226                           ;!       _lcd_char
  2227                           ;!         _delay_ms
  2228                           ;!         _e_pulse
  2229                           ;!           _delay_ms
  2230                           ;!     _timer1_init
  2231                           ;!     _enable_global_int
  2232                           ;!     _uart_init
  2233                           ;!     _delay_ms
  2234                           ;!     _disable_global_int
  2235                           ;!     _us_value
  2236                           ;!       _read_adc
  2237                           ;!         _delay_ms
  2238                           ;!         ___lldiv
  2239                           ;!           ___lmul (ARG)
  2240                           ;!       ___lmul
  2241                           ;!       ___lldiv
  2242                           ;!         ___lmul (ARG)
  2243                           ;!       ___wmul
  2244                           ;!     _stop
  2245                           ;!     _lcd_dis_num
  2246                           ;!       ___lwdiv
  2247                           ;!       ___lwmod
  2248                           ;!       _lcd_char
  2249                           ;!         _delay_ms
  2250                           ;!         _e_pulse
  2251                           ;!           _delay_ms
  2252                           ;!     _forward
  2253                           ;!     _backward
  2254                           ;!   _analog_sen
  2255                           ;!     _lcd_clr
  2256                           ;!       _lcd_config
  2257                           ;!         _delay_ms
  2258                           ;!         _e_pulse
  2259                           ;!           _delay_ms
  2260                           ;!       _delay_ms
  2261                           ;!     _lcd_string
  2262                           ;!       _lcd_char
  2263                           ;!         _delay_ms
  2264                           ;!         _e_pulse
  2265                           ;!           _delay_ms
  2266                           ;!     _lcd_2ndline
  2267                           ;!       _lcd_config
  2268                           ;!         _delay_ms
  2269                           ;!         _e_pulse
  2270                           ;!           _delay_ms
  2271                           ;!     _lcd_goto
  2272                           ;!       _lcd_config
  2273                           ;!         _delay_ms
  2274                           ;!         _e_pulse
  2275                           ;!           _delay_ms
  2276                           ;!     _read_adc
  2277                           ;!       _delay_ms
  2278                           ;!       ___lldiv
  2279                           ;!         ___lmul (ARG)
  2280                           ;!     ___lmul
  2281                           ;!     ___lldiv
  2282                           ;!       ___lmul (ARG)
  2283                           ;!     _lcd_dis_num
  2284                           ;!       ___lwdiv
  2285                           ;!       ___lwmod
  2286                           ;!       _lcd_char
  2287                           ;!         _delay_ms
  2288                           ;!         _e_pulse
  2289                           ;!           _delay_ms
  2290                           ;!     _lcd_char
  2291                           ;!       _delay_ms
  2292                           ;!       _e_pulse
  2293                           ;!         _delay_ms
  2294                           ;!     _backward
  2295                           ;!     _stop
  2296                           ;!     _forward
  2297                           ;!   _wireless_xbee
  2298                           ;!     _disable_global_int
  2299                           ;!     _uart_init
  2300                           ;!     _lcd_clr
  2301                           ;!       _lcd_config
  2302                           ;!         _delay_ms
  2303                           ;!         _e_pulse
  2304                           ;!           _delay_ms
  2305                           ;!       _delay_ms
  2306                           ;!     _lcd_string
  2307                           ;!       _lcd_char
  2308                           ;!         _delay_ms
  2309                           ;!         _e_pulse
  2310                           ;!           _delay_ms
  2311                           ;!     _lcd_2ndline
  2312                           ;!       _lcd_config
  2313                           ;!         _delay_ms
  2314                           ;!         _e_pulse
  2315                           ;!           _delay_ms
  2316                           ;!     _delay_ms
  2317                           ;!     _lcd_clr_line
  2318                           ;!       _lcd_home
  2319                           ;!         _lcd_config
  2320                           ;!           _delay_ms
  2321                           ;!           _e_pulse
  2322                           ;!             _delay_ms
  2323                           ;!       _lcd_2ndline
  2324                           ;!         _lcd_config
  2325                           ;!           _delay_ms
  2326                           ;!           _e_pulse
  2327                           ;!             _delay_ms
  2328                           ;!       _lcd_char
  2329                           ;!         _delay_ms
  2330                           ;!         _e_pulse
  2331                           ;!           _delay_ms
  2332                           ;!     _uart_rec
  2333                           ;!     _beep
  2334                           ;!       _delay_ms
  2335                           ;!     _uart_string_nl
  2336                           ;!       _uart_string
  2337                           ;!         _uart_send
  2338                           ;!       _uart_send
  2339                           ;!     _stop
  2340                           ;!     _forward
  2341                           ;!     _lcd_goto
  2342                           ;!       _lcd_config
  2343                           ;!         _delay_ms
  2344                           ;!         _e_pulse
  2345                           ;!           _delay_ms
  2346                           ;!     _backward
  2347                           ;!     _right
  2348                           ;!     _left
  2349                           ;!   _SKPS_PScon
  2350                           ;!     _disable_global_int
  2351                           ;!     _stop
  2352                           ;!     _lcd_clr
  2353                           ;!       _lcd_config
  2354                           ;!         _delay_ms
  2355                           ;!         _e_pulse
  2356                           ;!           _delay_ms
  2357                           ;!       _delay_ms
  2358                           ;!     _lcd_string
  2359                           ;!       _lcd_char
  2360                           ;!         _delay_ms
  2361                           ;!         _e_pulse
  2362                           ;!           _delay_ms
  2363                           ;!     _lcd_2ndline
  2364                           ;!       _lcd_config
  2365                           ;!         _delay_ms
  2366                           ;!         _e_pulse
  2367                           ;!           _delay_ms
  2368                           ;!     _delay_ms
  2369                           ;!     _lcd_clr_line
  2370                           ;!       _lcd_home
  2371                           ;!         _lcd_config
  2372                           ;!           _delay_ms
  2373                           ;!           _e_pulse
  2374                           ;!             _delay_ms
  2375                           ;!       _lcd_2ndline
  2376                           ;!         _lcd_config
  2377                           ;!           _delay_ms
  2378                           ;!           _e_pulse
  2379                           ;!             _delay_ms
  2380                           ;!       _lcd_char
  2381                           ;!         _delay_ms
  2382                           ;!         _e_pulse
  2383                           ;!           _delay_ms
  2384                           ;!     _lcd_goto
  2385                           ;!       _lcd_config
  2386                           ;!         _delay_ms
  2387                           ;!         _e_pulse
  2388                           ;!           _delay_ms
  2389                           ;!     _uart_init
  2390                           ;!     _beep
  2391                           ;!       _delay_ms
  2392                           ;!     _skps
  2393                           ;!       _uart_send
  2394                           ;!       _uart_rec
  2395                           ;!     _forward
  2396                           ;!     _backward
  2397                           ;!     _left
  2398                           ;!     _right
  2399                           ;!
  2400                           ;! _isr (ROOT)
  2401                           ;!
  2402                           
  2403                           ;! Address spaces:
  2404                           
  2405                           ;!Name               Size   Autos  Total    Cost      Usage
  2406                           ;!BANK3               60      0       0       9        0.0%
  2407                           ;!BITBANK3            60      0       0       8        0.0%
  2408                           ;!SFR3                 0      0       0       4        0.0%
  2409                           ;!BITSFR3              0      0       0       4        0.0%
  2410                           ;!BANK2               60      0       0      11        0.0%
  2411                           ;!BITBANK2            60      0       0      10        0.0%
  2412                           ;!SFR2                 0      0       0       5        0.0%
  2413                           ;!BITSFR2              0      0       0       5        0.0%
  2414                           ;!BANK1               50      0       A       7       12.5%
  2415                           ;!BITBANK1            50      0       0       6        0.0%
  2416                           ;!SFR1                 0      0       0       2        0.0%
  2417                           ;!BITSFR1              0      0       0       2        0.0%
  2418                           ;!BANK0               50     3F      4A       5       92.5%
  2419                           ;!BITBANK0            50      0       0       4        0.0%
  2420                           ;!SFR0                 0      0       0       1        0.0%
  2421                           ;!BITSFR0              0      0       0       1        0.0%
  2422                           ;!COMMON               E      7       A       1       71.4%
  2423                           ;!BITCOMMON            E      0       0       0        0.0%
  2424                           ;!CODE                 0      0       0       0        0.0%
  2425                           ;!DATA                 0      0      64      12        0.0%
  2426                           ;!ABS                  0      0      5E       3        0.0%
  2427                           ;!NULL                 0      0       0       0        0.0%
  2428                           ;!STACK                0      0       6       2        0.0%
  2429                           ;!EEDATA             100      0       0       0        0.0%
  2430                           
  2431                           	global	_main
  2432                           
  2433 ;; *************** function _main *****************
  2434 ;; Defined at:
  2435 ;;		line 231 in file "PR23.c"
  2436 ;; Parameters:    Size  Location     Type
  2437 ;;		None
  2438 ;; Auto vars:     Size  Location     Type
  2439 ;;  mode            1   62[BANK0 ] unsigned char 
  2440 ;;  i               1   61[BANK0 ] unsigned char 
  2441 ;; Return value:  Size  Location     Type
  2442 ;;		None               void
  2443 ;; Registers used:
  2444 ;;		wreg, fsr0l, fsr0h, fsr1l, fsr1h, status,2, status,0, btemp+1, pclath, cstack
  2445 ;; Tracked objects:
  2446 ;;		On entry : 17F/0
  2447 ;;		On exit  : 0/0
  2448 ;;		Unchanged: 0/0
  2449 ;; Data sizes:     COMMON   BANK0   BANK1   BANK3   BANK2
  2450 ;;      Params:         0       0       0       0       0
  2451 ;;      Locals:         0       2       0       0       0
  2452 ;;      Temps:          0       1       0       0       0
  2453 ;;      Totals:         0       3       0       0       0
  2454 ;;Total ram usage:        3 bytes
  2455 ;; Hardware stack levels required when called:    7
  2456 ;; This function calls:
  2457 ;;		_init
  2458 ;;		_lcd_init
  2459 ;;		_beep
  2460 ;;		_lcd_clr
  2461 ;;		_lcd_string
  2462 ;;		_lcd_2ndline
  2463 ;;		_delay_ms
  2464 ;;		_lcd_clr_line
  2465 ;;		_lcd_home
  2466 ;;		_line_follow
  2467 ;;		_ultrasonic
  2468 ;;		_analog_sen
  2469 ;;		_wireless_xbee
  2470 ;;		_SKPS_PScon
  2471 ;; This function is called by:
  2472 ;;		Startup code after reset
  2473 ;; This function uses a non-reentrant model
  2474 ;;
  2475                           psect	maintext,global,class=CODE,delta=2,split=1
  2476                           global __pmaintext
  2477  0B54                     __pmaintext:	;psect for function _main
  2478                           psect	maintext
  2479                           	file	"PR23.c"
  2480                           	line	231
  2481                           	global	__size_of_main
  2482  015C                     	__size_of_main	equ	__end_of_main-_main
  2483                           	
  2484  0B54                     _main:	
  2485                           	opt	stack 1
  2486                           ; Regs used in _main: [allreg]
  2487                           	line	232
  2488                           	
  2489  0B54                     l3268:	
  2490                           ;PR23.c: 232: unsigned char mode = 0, i = 0;
  2491  0B54  1283               	bcf	status, 5	;RP0=0, select bank0
  2492  0B55  1303               	bcf	status, 6	;RP1=0, select bank0
  2493  0B56  01DE               	clrf	(main@mode)
  2494  0B57  01DD               	clrf	(main@i)
  2495                           	line	233
  2496                           	
  2497  0B58                     l3270:	
  2498                           ;PR23.c: 233: init();
  2499  0B58  160A  118A  2657   	fcall	_init
              120A  158A         
  2500                           	line	234
  2501                           ;PR23.c: 234: lcd_init();
  2502  0B5D  160A  118A  261F   	fcall	_lcd_init
              120A  158A         
  2503                           	line	235
  2504                           	
  2505  0B62                     l3272:	
  2506                           ;PR23.c: 235: beep(2);
  2507  0B62  3002               	movlw	(02h)
  2508  0B63  160A  118A  25BF   	fcall	_beep
              120A  158A         
  2509                           	line	236
  2510                           	
  2511  0B68                     l3274:	
  2512                           ;PR23.c: 236: RB5 = 1;
  2513  0B68  1283               	bcf	status, 5	;RP0=0, select bank0
  2514  0B69  1303               	bcf	status, 6	;RP1=0, select bank0
  2515  0B6A  1686               	bsf	(53/8),(53)&7	;volatile
  2516                           	line	237
  2517                           	
  2518  0B6B                     l3276:	
  2519                           ;PR23.c: 237: lcd_clr();
  2520  0B6B  160A  118A  24C6   	fcall	_lcd_clr
              120A  158A         
  2521                           	line	238
  2522                           	
  2523  0B70                     l3278:	
  2524                           ;PR23.c: 238: lcd_string(cytron_tech);
  2525  0B70  3085               	movlw	low(_cytron_tech|8000h)
  2526  0B71  1283               	bcf	status, 5	;RP0=0, select bank0
  2527  0B72  1303               	bcf	status, 6	;RP1=0, select bank0
  2528  0B73  00A9               	movwf	(?_lcd_string)
  2529  0B74  3081               	movlw	high(_cytron_tech|8000h)
  2530  0B75  00AA               	movwf	((?_lcd_string))+1
  2531  0B76  160A  118A  25EE   	fcall	_lcd_string
              120A  158A         
  2532                           	line	239
  2533                           	
  2534  0B7B                     l3280:	
  2535                           ;PR23.c: 239: lcd_2ndline();
  2536  0B7B  120A  118A  27F9   	fcall	_lcd_2ndline
              120A  158A         
  2537                           	line	240
  2538                           	
  2539  0B80                     l3282:	
  2540                           ;PR23.c: 240: lcd_string(cytron_website);
  2541  0B80  3076               	movlw	low(_cytron_website|8000h)
  2542  0B81  1283               	bcf	status, 5	;RP0=0, select bank0
  2543  0B82  1303               	bcf	status, 6	;RP1=0, select bank0
  2544  0B83  00A9               	movwf	(?_lcd_string)
  2545  0B84  3081               	movlw	high(_cytron_website|8000h)
  2546  0B85  00AA               	movwf	((?_lcd_string))+1
  2547  0B86  160A  118A  25EE   	fcall	_lcd_string
              120A  158A         
  2548                           	line	241
  2549                           	
  2550  0B8B                     l3284:	
  2551                           ;PR23.c: 241: delay_ms(800);
  2552  0B8B  3000               	movlw	0
  2553  0B8C  1283               	bcf	status, 5	;RP0=0, select bank0
  2554  0B8D  1303               	bcf	status, 6	;RP1=0, select bank0
  2555  0B8E  00A3               	movwf	(?_delay_ms+3)
  2556  0B8F  3000               	movlw	0
  2557  0B90  00A2               	movwf	(?_delay_ms+2)
  2558  0B91  3003               	movlw	03h
  2559  0B92  00A1               	movwf	(?_delay_ms+1)
  2560  0B93  3020               	movlw	020h
  2561  0B94  00A0               	movwf	(?_delay_ms)
  2562                           
  2563  0B95  160A  118A  26CD   	fcall	_delay_ms
              120A  158A         
  2564                           	line	243
  2565                           ;PR23.c: 243: lcd_clr();
  2566  0B9A  160A  118A  24C6   	fcall	_lcd_clr
              120A  158A         
  2567                           	line	244
  2568                           	
  2569  0B9F                     l3286:	
  2570                           ;PR23.c: 244: lcd_string(diy_project);
  2571  0B9F  3066               	movlw	low(_diy_project|8000h)
  2572  0BA0  1283               	bcf	status, 5	;RP0=0, select bank0
  2573  0BA1  1303               	bcf	status, 6	;RP1=0, select bank0
  2574  0BA2  00A9               	movwf	(?_lcd_string)
  2575  0BA3  3081               	movlw	high(_diy_project|8000h)
  2576  0BA4  00AA               	movwf	((?_lcd_string))+1
  2577  0BA5  160A  118A  25EE   	fcall	_lcd_string
              120A  158A         
  2578                           	line	245
  2579                           	
  2580  0BAA                     l3288:	
  2581                           ;PR23.c: 245: lcd_2ndline();
  2582  0BAA  120A  118A  27F9   	fcall	_lcd_2ndline
              120A  158A         
  2583                           	line	246
  2584                           ;PR23.c: 246: lcd_string(multifunction_robot);
  2585  0BAF  3045               	movlw	low(_multifunction_robot|8000h)
  2586  0BB0  1283               	bcf	status, 5	;RP0=0, select bank0
  2587  0BB1  1303               	bcf	status, 6	;RP1=0, select bank0
  2588  0BB2  00A9               	movwf	(?_lcd_string)
  2589  0BB3  3081               	movlw	high(_multifunction_robot|8000h)
  2590  0BB4  00AA               	movwf	((?_lcd_string))+1
  2591  0BB5  160A  118A  25EE   	fcall	_lcd_string
              120A  158A         
  2592                           	line	247
  2593                           	
  2594  0BBA                     l3290:	
  2595                           ;PR23.c: 247: delay_ms(800);
  2596  0BBA  3000               	movlw	0
  2597  0BBB  1283               	bcf	status, 5	;RP0=0, select bank0
  2598  0BBC  1303               	bcf	status, 6	;RP1=0, select bank0
  2599  0BBD  00A3               	movwf	(?_delay_ms+3)
  2600  0BBE  3000               	movlw	0
  2601  0BBF  00A2               	movwf	(?_delay_ms+2)
  2602  0BC0  3003               	movlw	03h
  2603  0BC1  00A1               	movwf	(?_delay_ms+1)
  2604  0BC2  3020               	movlw	020h
  2605  0BC3  00A0               	movwf	(?_delay_ms)
  2606                           
  2607  0BC4  160A  118A  26CD   	fcall	_delay_ms
              120A  158A         
  2608                           	line	249
  2609                           	
  2610  0BC9                     l3292:	
  2611                           ;PR23.c: 249: lcd_clr();
  2612  0BC9  160A  118A  24C6   	fcall	_lcd_clr
              120A  158A         
  2613                           	line	250
  2614                           	
  2615  0BCE                     l3294:	
  2616                           ;PR23.c: 250: lcd_string(pr23_rev);
  2617  0BCE  3093               	movlw	low(_pr23_rev|8000h)
  2618  0BCF  1283               	bcf	status, 5	;RP0=0, select bank0
  2619  0BD0  1303               	bcf	status, 6	;RP1=0, select bank0
  2620  0BD1  00A9               	movwf	(?_lcd_string)
  2621  0BD2  3081               	movlw	high(_pr23_rev|8000h)
  2622  0BD3  00AA               	movwf	((?_lcd_string))+1
  2623  0BD4  160A  118A  25EE   	fcall	_lcd_string
              120A  158A         
  2624                           	line	251
  2625                           	
  2626  0BD9                     l3296:	
  2627                           ;PR23.c: 251: lcd_2ndline();
  2628  0BD9  120A  118A  27F9   	fcall	_lcd_2ndline
              120A  158A         
  2629                           	line	252
  2630                           	
  2631  0BDE                     l3298:	
  2632                           ;PR23.c: 252: lcd_string(code_version);
  2633  0BDE  3023               	movlw	low(_code_version|8000h)
  2634  0BDF  1283               	bcf	status, 5	;RP0=0, select bank0
  2635  0BE0  1303               	bcf	status, 6	;RP1=0, select bank0
  2636  0BE1  00A9               	movwf	(?_lcd_string)
  2637  0BE2  3081               	movlw	high(_code_version|8000h)
  2638  0BE3  00AA               	movwf	((?_lcd_string))+1
  2639  0BE4  160A  118A  25EE   	fcall	_lcd_string
              120A  158A         
  2640                           	line	253
  2641                           	
  2642  0BE9                     l3300:	
  2643                           ;PR23.c: 253: delay_ms(800);
  2644  0BE9  3000               	movlw	0
  2645  0BEA  1283               	bcf	status, 5	;RP0=0, select bank0
  2646  0BEB  1303               	bcf	status, 6	;RP1=0, select bank0
  2647  0BEC  00A3               	movwf	(?_delay_ms+3)
  2648  0BED  3000               	movlw	0
  2649  0BEE  00A2               	movwf	(?_delay_ms+2)
  2650  0BEF  3003               	movlw	03h
  2651  0BF0  00A1               	movwf	(?_delay_ms+1)
  2652  0BF1  3020               	movlw	020h
  2653  0BF2  00A0               	movwf	(?_delay_ms)
  2654                           
  2655  0BF3  160A  118A  26CD   	fcall	_delay_ms
              120A  158A         
  2656                           	line	255
  2657                           	
  2658  0BF8                     l3302:	
  2659                           ;PR23.c: 255: lcd_clr();
  2660  0BF8  160A  118A  24C6   	fcall	_lcd_clr
              120A  158A         
  2661                           	line	256
  2662                           	
  2663  0BFD                     l3304:	
  2664                           ;PR23.c: 256: lcd_string(mode_string[mode]);
  2665  0BFD  1283               	bcf	status, 5	;RP0=0, select bank0
  2666  0BFE  1303               	bcf	status, 6	;RP1=0, select bank0
  2667  0BFF  085E               	movf	(main@mode),w
  2668  0C00  00DC               	movwf	(??_main+0)+0
  2669  0C01  075C               	addwf	(??_main+0)+0,w
  2670  0C02  3EA0               	addlw	_mode_string&0ffh
  2671  0C03  0084               	movwf	fsr0
  2672  0C04  1383               	bcf	status, 7	;select IRP bank1
  2673  0C05  0800               	movf	indf,w
  2674  0C06  00A9               	movwf	(?_lcd_string)
  2675  0C07  0A84               	incf	fsr0,f
  2676  0C08  0800               	movf	indf,w
  2677  0C09  00AA               	movwf	(?_lcd_string+1)
  2678  0C0A  160A  118A  25EE   	fcall	_lcd_string
              120A  158A         
  2679                           	line	257
  2680                           ;PR23.c: 257: lcd_2ndline();
  2681  0C0F  120A  118A  27F9   	fcall	_lcd_2ndline
              120A  158A         
  2682                           	line	258
  2683                           	
  2684  0C14                     l3306:	
  2685                           ;PR23.c: 258: lcd_string("SW1++  SW2->Run");
  2686  0C14  3084               	movlw	low(STR_1|8000h)
  2687  0C15  1283               	bcf	status, 5	;RP0=0, select bank0
  2688  0C16  1303               	bcf	status, 6	;RP1=0, select bank0
  2689  0C17  00A9               	movwf	(?_lcd_string)
  2690  0C18  3082               	movlw	high(STR_1|8000h)
  2691  0C19  00AA               	movwf	((?_lcd_string))+1
  2692  0C1A  160A  118A  25EE   	fcall	_lcd_string
              120A  158A         
  2693                           	line	259
  2694                           	
  2695  0C1F                     l3308:	
  2696                           ;PR23.c: 259: beep(1);
  2697  0C1F  3001               	movlw	(01h)
  2698  0C20  160A  118A  25BF   	fcall	_beep
              120A  158A         
  2699  0C25  2C26               	goto	l3310
  2700                           	line	261
  2701                           ;PR23.c: 261: while(1)
  2702                           	
  2703  0C26                     l210:	
  2704                           	line	263
  2705                           	
  2706  0C26                     l3310:	
  2707                           ;PR23.c: 262: {
  2708                           ;PR23.c: 263: if(RE0 == 0)
  2709  0C26  1283               	bcf	status, 5	;RP0=0, select bank0
  2710  0C27  1303               	bcf	status, 6	;RP1=0, select bank0
  2711  0C28  1809               	btfsc	(72/8),(72)&7	;volatile
  2712  0C29  2C2B               	goto	u3121
  2713  0C2A  2C2C               	goto	u3120
  2714  0C2B                     u3121:
  2715  0C2B  2C65               	goto	l3326
  2716  0C2C                     u3120:
  2717  0C2C  2C2E               	goto	l212
  2718                           	line	265
  2719                           	
  2720  0C2D                     l3312:	
  2721                           ;PR23.c: 264: {
  2722                           ;PR23.c: 265: while(RE0 == 0);
  2723  0C2D  2C2E               	goto	l212
  2724                           	
  2725  0C2E                     l213:	
  2726                           	
  2727  0C2E                     l212:	
  2728  0C2E  1C09               	btfss	(72/8),(72)&7	;volatile
  2729  0C2F  2C31               	goto	u3131
  2730  0C30  2C32               	goto	u3130
  2731  0C31                     u3131:
  2732  0C31  2C2E               	goto	l212
  2733  0C32                     u3130:
  2734  0C32  2C33               	goto	l3314
  2735                           	
  2736  0C33                     l214:	
  2737                           	line	266
  2738                           	
  2739  0C33                     l3314:	
  2740                           ;PR23.c: 266: beep(1);
  2741  0C33  3001               	movlw	(01h)
  2742  0C34  160A  118A  25BF   	fcall	_beep
              120A  158A         
  2743                           	line	267
  2744                           	
  2745  0C39                     l3316:	
  2746                           ;PR23.c: 267: mode ++;
  2747  0C39  3001               	movlw	(01h)
  2748  0C3A  1283               	bcf	status, 5	;RP0=0, select bank0
  2749  0C3B  1303               	bcf	status, 6	;RP1=0, select bank0
  2750  0C3C  00DC               	movwf	(??_main+0)+0
  2751  0C3D  085C               	movf	(??_main+0)+0,w
  2752  0C3E  07DE               	addwf	(main@mode),f
  2753                           	line	268
  2754                           	
  2755  0C3F                     l3318:	
  2756                           ;PR23.c: 268: if ( mode > 4) mode = 0;
  2757  0C3F  3005               	movlw	(05h)
  2758  0C40  025E               	subwf	(main@mode),w
  2759  0C41  1C03               	skipc
  2760  0C42  2C44               	goto	u3141
  2761  0C43  2C45               	goto	u3140
  2762  0C44                     u3141:
  2763  0C44  2C47               	goto	l3322
  2764  0C45                     u3140:
  2765                           	
  2766  0C45                     l3320:	
  2767  0C45  01DE               	clrf	(main@mode)
  2768  0C46  2C47               	goto	l3322
  2769                           	
  2770  0C47                     l215:	
  2771                           	line	269
  2772                           	
  2773  0C47                     l3322:	
  2774                           ;PR23.c: 269: lcd_clr_line(0);
  2775  0C47  3000               	movlw	(0)
  2776  0C48  160A  118A  2691   	fcall	_lcd_clr_line
              120A  158A         
  2777                           	line	270
  2778                           ;PR23.c: 270: lcd_home();
  2779  0C4D  160A  118A  2467   	fcall	_lcd_home
              120A  158A         
  2780                           	line	271
  2781                           	
  2782  0C52                     l3324:	
  2783                           ;PR23.c: 271: lcd_string(mode_string[mode]);
  2784  0C52  1283               	bcf	status, 5	;RP0=0, select bank0
  2785  0C53  1303               	bcf	status, 6	;RP1=0, select bank0
  2786  0C54  085E               	movf	(main@mode),w
  2787  0C55  00DC               	movwf	(??_main+0)+0
  2788  0C56  075C               	addwf	(??_main+0)+0,w
  2789  0C57  3EA0               	addlw	_mode_string&0ffh
  2790  0C58  0084               	movwf	fsr0
  2791  0C59  1383               	bcf	status, 7	;select IRP bank1
  2792  0C5A  0800               	movf	indf,w
  2793  0C5B  00A9               	movwf	(?_lcd_string)
  2794  0C5C  0A84               	incf	fsr0,f
  2795  0C5D  0800               	movf	indf,w
  2796  0C5E  00AA               	movwf	(?_lcd_string+1)
  2797  0C5F  160A  118A  25EE   	fcall	_lcd_string
              120A  158A         
  2798  0C64  2C65               	goto	l3326
  2799                           	line	272
  2800                           	
  2801  0C65                     l211:	
  2802                           	line	274
  2803                           	
  2804  0C65                     l3326:	
  2805                           ;PR23.c: 272: }
  2806                           ;PR23.c: 274: if (RE1 == 0)
  2807  0C65  1283               	bcf	status, 5	;RP0=0, select bank0
  2808  0C66  1303               	bcf	status, 6	;RP1=0, select bank0
  2809  0C67  1889               	btfsc	(73/8),(73)&7	;volatile
  2810  0C68  2C6A               	goto	u3151
  2811  0C69  2C6B               	goto	u3150
  2812  0C6A                     u3151:
  2813  0C6A  2C26               	goto	l3310
  2814  0C6B                     u3150:
  2815  0C6B  2C6D               	goto	l217
  2816                           	line	276
  2817                           	
  2818  0C6C                     l3328:	
  2819                           ;PR23.c: 275: {
  2820                           ;PR23.c: 276: while(RE1 == 0);
  2821  0C6C  2C6D               	goto	l217
  2822                           	
  2823  0C6D                     l218:	
  2824                           	
  2825  0C6D                     l217:	
  2826  0C6D  1C89               	btfss	(73/8),(73)&7	;volatile
  2827  0C6E  2C70               	goto	u3161
  2828  0C6F  2C71               	goto	u3160
  2829  0C70                     u3161:
  2830  0C70  2C6D               	goto	l217
  2831  0C71                     u3160:
  2832  0C71  2C72               	goto	l3330
  2833                           	
  2834  0C72                     l219:	
  2835                           	line	277
  2836                           	
  2837  0C72                     l3330:	
  2838                           ;PR23.c: 277: beep(1);
  2839  0C72  3001               	movlw	(01h)
  2840  0C73  160A  118A  25BF   	fcall	_beep
              120A  158A         
  2841                           	line	279
  2842                           ;PR23.c: 279: switch(mode)
  2843  0C78  2C97               	goto	l3342
  2844                           	line	281
  2845                           ;PR23.c: 280: {
  2846                           ;PR23.c: 281: case 0 :
  2847                           	
  2848  0C79                     l221:	
  2849                           	line	282
  2850                           	
  2851  0C79                     l3332:	
  2852                           ;PR23.c: 282: line_follow();
  2853  0C79  120A  158A  264C   	fcall	_line_follow
              120A  158A         
  2854                           	line	283
  2855                           ;PR23.c: 283: break;
  2856  0C7E  2C26               	goto	l3310
  2857                           	line	285
  2858                           ;PR23.c: 285: case 1 :
  2859                           	
  2860  0C7F                     l223:	
  2861                           	line	286
  2862                           	
  2863  0C7F                     l3334:	
  2864                           ;PR23.c: 286: ultrasonic();
  2865  0C7F  120A  158A  24B0   	fcall	_ultrasonic
              120A  158A         
  2866                           	line	287
  2867                           ;PR23.c: 287: break;
  2868  0C84  2C26               	goto	l3310
  2869                           	line	289
  2870                           ;PR23.c: 289: case 2 :
  2871                           	
  2872  0C85                     l224:	
  2873                           	line	290
  2874                           	
  2875  0C85                     l3336:	
  2876                           ;PR23.c: 290: analog_sen();
  2877  0C85  120A  158A  2200   	fcall	_analog_sen
              120A  158A         
  2878                           	line	291
  2879                           ;PR23.c: 291: break;
  2880  0C8A  2C26               	goto	l3310
  2881                           	line	293
  2882                           ;PR23.c: 293: case 3 :
  2883                           	
  2884  0C8B                     l225:	
  2885                           	line	294
  2886                           	
  2887  0C8B                     l3338:	
  2888                           ;PR23.c: 294: wireless_xbee();
  2889  0C8B  120A  118A  25B9   	fcall	_wireless_xbee
              120A  158A         
  2890                           	line	295
  2891                           ;PR23.c: 295: break;
  2892  0C90  2C26               	goto	l3310
  2893                           	line	297
  2894                           ;PR23.c: 297: case 4 :
  2895                           	
  2896  0C91                     l226:	
  2897                           	line	298
  2898                           	
  2899  0C91                     l3340:	
  2900                           ;PR23.c: 298: SKPS_PScon();
  2901  0C91  120A  118A  23BD   	fcall	_SKPS_PScon
              120A  158A         
  2902                           	line	299
  2903                           ;PR23.c: 299: }
  2904  0C96  2C26               	goto	l3310
  2905                           	line	279
  2906                           	
  2907  0C97                     l220:	
  2908                           	
  2909  0C97                     l3342:	
  2910  0C97  1283               	bcf	status, 5	;RP0=0, select bank0
  2911  0C98  1303               	bcf	status, 6	;RP1=0, select bank0
  2912  0C99  085E               	movf	(main@mode),w
  2913                           	; Switch size 1, requested type "space"
  2914                           ; Number of cases is 5, Range of values is 0 to 4
  2915                           ; switch strategies available:
  2916                           ; Name         Instructions Cycles
  2917                           ; simple_byte           16     9 (average)
  2918                           ; direct_byte           23     8 (fixed)
  2919                           ; jumptable            260     6 (fixed)
  2920                           ; rangetable             9     6 (fixed)
  2921                           ; spacedrange           16     9 (fixed)
  2922                           ; locatedrange           5     3 (fixed)
  2923                           ;	Chosen strategy is simple_byte
  2924                           
  2925                           	opt asmopt_off
  2926  0C9A  3A00               	xorlw	0^0	; case 0
  2927  0C9B  1903               	skipnz
  2928  0C9C  2C79               	goto	l3332
  2929  0C9D  3A01               	xorlw	1^0	; case 1
  2930  0C9E  1903               	skipnz
  2931  0C9F  2C7F               	goto	l3334
  2932  0CA0  3A03               	xorlw	2^1	; case 2
  2933  0CA1  1903               	skipnz
  2934  0CA2  2C85               	goto	l3336
  2935  0CA3  3A01               	xorlw	3^2	; case 3
  2936  0CA4  1903               	skipnz
  2937  0CA5  2C8B               	goto	l3338
  2938  0CA6  3A07               	xorlw	4^3	; case 4
  2939  0CA7  1903               	skipnz
  2940  0CA8  2C91               	goto	l3340
  2941  0CA9  2C26               	goto	l3310
  2942                           	opt asmopt_on
  2943                           
  2944                           	line	299
  2945                           	
  2946  0CAA                     l222:	
  2947  0CAA  2C26               	goto	l3310
  2948                           	line	300
  2949                           	
  2950  0CAB                     l216:	
  2951  0CAB  2C26               	goto	l3310
  2952                           	line	301
  2953                           	
  2954  0CAC                     l227:	
  2955                           	line	261
  2956  0CAC  2C26               	goto	l3310
  2957                           	
  2958  0CAD                     l228:	
  2959                           	line	302
  2960                           	
  2961  0CAD                     l229:	
  2962                           	global	start
  2963  0CAD  120A  118A  2812   	ljmp	start
  2964                           	opt stack 0
  2965                           GLOBAL	__end_of_main
  2966  0CB0                     	__end_of_main:
  2967                           	signat	_main,88
  2968                           	global	_init
  2969                           
  2970 ;; *************** function _init *****************
  2971 ;; Defined at:
  2972 ;;		line 599 in file "PR23.c"
  2973 ;; Parameters:    Size  Location     Type
  2974 ;;		None
  2975 ;; Auto vars:     Size  Location     Type
  2976 ;;		None
  2977 ;; Return value:  Size  Location     Type
  2978 ;;		None               void
  2979 ;; Registers used:
  2980 ;;		wreg, fsr0l, fsr0h, fsr1l, fsr1h, status,2, status,0, btemp+1, pclath, cstack
  2981 ;; Tracked objects:
  2982 ;;		On entry : 0/0
  2983 ;;		On exit  : 0/0
  2984 ;;		Unchanged: 0/0
  2985 ;; Data sizes:     COMMON   BANK0   BANK1   BANK3   BANK2
  2986 ;;      Params:         0       0       0       0       0
  2987 ;;      Locals:         0       0       0       0       0
  2988 ;;      Temps:          0       0       0       0       0
  2989 ;;      Totals:         0       0       0       0       0
  2990 ;;Total ram usage:        0 bytes
  2991 ;; Hardware stack levels used:    1
  2992 ;; Hardware stack levels required when called:    5
  2993 ;; This function calls:
  2994 ;;		_adc_init
  2995 ;;		_interrupt_init
  2996 ;;		_disable_global_int
  2997 ;;		_lcd_init
  2998 ;;		_stop
  2999 ;; This function is called by:
  3000 ;;		_main
  3001 ;; This function uses a non-reentrant model
  3002 ;;
  3003                           psect	text1383,local,class=CODE,delta=2,merge=1
  3004                           global __ptext1383
  3005  1657                     __ptext1383:	;psect for function _init
  3006                           psect	text1383
  3007                           	file	"PR23.c"
  3008                           	line	599
  3009                           	global	__size_of_init
  3010  003A                     	__size_of_init	equ	__end_of_init-_init
  3011                           	
  3012  1657                     _init:	
  3013                           	opt	stack 2
  3014                           ; Regs used in _init: [allreg]
  3015                           	line	600
  3016                           	
  3017  1657                     l3344:	
  3018                           ;PR23.c: 600: PORTA = 0;
  3019  1657  1283               	bcf	status, 5	;RP0=0, select bank0
  3020  1658  1303               	bcf	status, 6	;RP1=0, select bank0
  3021  1659  0185               	clrf	(5)	;volatile
  3022                           	line	601
  3023                           ;PR23.c: 601: PORTB = 0;
  3024  165A  0186               	clrf	(6)	;volatile
  3025                           	line	602
  3026                           ;PR23.c: 602: PORTC = 0;
  3027  165B  0187               	clrf	(7)	;volatile
  3028                           	line	603
  3029                           ;PR23.c: 603: PORTD = 0;
  3030  165C  0188               	clrf	(8)	;volatile
  3031                           	line	604
  3032                           ;PR23.c: 604: PORTE = 0;
  3033  165D  0189               	clrf	(9)	;volatile
  3034                           	line	607
  3035                           	
  3036  165E                     l3346:	
  3037                           ;PR23.c: 607: TRISA = 0b00110011;
  3038  165E  3033               	movlw	(033h)
  3039  165F  1683               	bsf	status, 5	;RP0=1, select bank1
  3040  1660  1303               	bcf	status, 6	;RP1=0, select bank1
  3041  1661  0085               	movwf	(133)^080h	;volatile
  3042                           	line	609
  3043                           	
  3044  1662                     l3348:	
  3045                           ;PR23.c: 609: TRISB = 0b00011111;
  3046  1662  301F               	movlw	(01Fh)
  3047  1663  0086               	movwf	(134)^080h	;volatile
  3048                           	line	610
  3049                           	
  3050  1664                     l3350:	
  3051                           ;PR23.c: 610: TRISC = 0b10000000;
  3052  1664  3080               	movlw	(080h)
  3053  1665  0087               	movwf	(135)^080h	;volatile
  3054                           	line	611
  3055                           	
  3056  1666                     l3352:	
  3057                           ;PR23.c: 611: TRISD = 0b00000000;
  3058  1666  0188               	clrf	(136)^080h	;volatile
  3059                           	line	612
  3060                           ;PR23.c: 612: TRISE = 0b00000011;
  3061  1667  3003               	movlw	(03h)
  3062  1668  0089               	movwf	(137)^080h	;volatile
  3063                           	line	615
  3064                           	
  3065  1669                     l3354:	
  3066                           ;PR23.c: 615: adc_init();
  3067  1669  160A  118A  246E   	fcall	_adc_init
              160A  118A         
  3068                           	line	616
  3069                           ;PR23.c: 616: interrupt_init();
  3070  166E  160A  118A  2437   	fcall	_interrupt_init
              160A  118A         
  3071                           	line	619
  3072                           	
  3073  1673                     l3356:	
  3074                           ;PR23.c: 619: PR2 = 255;
  3075  1673  30FF               	movlw	(0FFh)
  3076  1674  1683               	bsf	status, 5	;RP0=1, select bank1
  3077  1675  1303               	bcf	status, 6	;RP1=0, select bank1
  3078  1676  0092               	movwf	(146)^080h	;volatile
  3079                           	line	620
  3080                           	
  3081  1677                     l3358:	
  3082                           ;PR23.c: 620: T2CON = 0b00000100;
  3083  1677  3004               	movlw	(04h)
  3084  1678  1283               	bcf	status, 5	;RP0=0, select bank0
  3085  1679  1303               	bcf	status, 6	;RP1=0, select bank0
  3086  167A  0092               	movwf	(18)	;volatile
  3087                           	line	621
  3088                           	
  3089  167B                     l3360:	
  3090                           ;PR23.c: 621: CCP1CON = 0b00001100;
  3091  167B  300C               	movlw	(0Ch)
  3092  167C  0097               	movwf	(23)	;volatile
  3093                           	line	622
  3094                           	
  3095  167D                     l3362:	
  3096                           ;PR23.c: 622: CCP2CON = 0b00001100;
  3097  167D  300C               	movlw	(0Ch)
  3098  167E  009D               	movwf	(29)	;volatile
  3099                           	line	623
  3100                           	
  3101  167F                     l3364:	
  3102                           ;PR23.c: 623: CCPR1L = 0;
  3103  167F  0195               	clrf	(21)	;volatile
  3104                           	line	624
  3105                           	
  3106  1680                     l3366:	
  3107                           ;PR23.c: 624: CCPR2L = 0;
  3108  1680  019B               	clrf	(27)	;volatile
  3109                           	line	626
  3110                           ;PR23.c: 626: disable_global_int();
  3111  1681  160A  118A  2434   	fcall	_disable_global_int
              160A  118A         
  3112                           	line	627
  3113                           	
  3114  1686                     l3368:	
  3115                           ;PR23.c: 627: lcd_init();
  3116  1686  160A  118A  261F   	fcall	_lcd_init
              160A  118A         
  3117                           	line	628
  3118                           	
  3119  168B                     l3370:	
  3120                           ;PR23.c: 628: stop();
  3121  168B  160A  118A  2459   	fcall	_stop
              160A  118A         
  3122                           	line	629
  3123                           	
  3124  1690                     l367:	
  3125  1690  0008               	return
  3126                           	opt stack 0
  3127                           GLOBAL	__end_of_init
  3128  1691                     	__end_of_init:
  3129                           	signat	_init,88
  3130                           	global	_lcd_init
  3131                           
  3132 ;; *************** function _lcd_init *****************
  3133 ;; Defined at:
  3134 ;;		line 332 in file "PR23.c"
  3135 ;; Parameters:    Size  Location     Type
  3136 ;;		None
  3137 ;; Auto vars:     Size  Location     Type
  3138 ;;		None
  3139 ;; Return value:  Size  Location     Type
  3140 ;;		None               void
  3141 ;; Registers used:
  3142 ;;		wreg, status,2, status,0, pclath, cstack
  3143 ;; Tracked objects:
  3144 ;;		On entry : 0/0
  3145 ;;		On exit  : 0/0
  3146 ;;		Unchanged: 0/0
  3147 ;; Data sizes:     COMMON   BANK0   BANK1   BANK3   BANK2
  3148 ;;      Params:         0       0       0       0       0
  3149 ;;      Locals:         0       0       0       0       0
  3150 ;;      Temps:          0       0       0       0       0
  3151 ;;      Totals:         0       0       0       0       0
  3152 ;;Total ram usage:        0 bytes
  3153 ;; Hardware stack levels used:    1
  3154 ;; Hardware stack levels required when called:    4
  3155 ;; This function calls:
  3156 ;;		_delay_ms
  3157 ;;		_lcd_config
  3158 ;; This function is called by:
  3159 ;;		_main
  3160 ;;		_init
  3161 ;; This function uses a non-reentrant model
  3162 ;;
  3163                           psect	text1384,local,class=CODE,delta=2,merge=1
  3164                           global __ptext1384
  3165  161F                     __ptext1384:	;psect for function _lcd_init
  3166                           psect	text1384
  3167                           	file	"PR23.c"
  3168                           	line	332
  3169                           	global	__size_of_lcd_init
  3170  0038                     	__size_of_lcd_init	equ	__end_of_lcd_init-_lcd_init
  3171                           	
  3172  161F                     _lcd_init:	
  3173                           	opt	stack 3
  3174                           ; Regs used in _lcd_init: [wreg+status,2+status,0+pclath+cstack]
  3175                           	line	333
  3176                           	
  3177  161F                     l3372:	
  3178                           ;PR23.c: 333: RB6 = 1;
  3179  161F  1283               	bcf	status, 5	;RP0=0, select bank0
  3180  1620  1303               	bcf	status, 6	;RP1=0, select bank0
  3181  1621  1706               	bsf	(54/8),(54)&7	;volatile
  3182                           	line	334
  3183                           	
  3184  1622                     l3374:	
  3185                           ;PR23.c: 334: delay_ms(15);
  3186  1622  3000               	movlw	0
  3187  1623  00A3               	movwf	(?_delay_ms+3)
  3188  1624  3000               	movlw	0
  3189  1625  00A2               	movwf	(?_delay_ms+2)
  3190  1626  3000               	movlw	0
  3191  1627  00A1               	movwf	(?_delay_ms+1)
  3192  1628  300F               	movlw	0Fh
  3193  1629  00A0               	movwf	(?_delay_ms)
  3194                           
  3195  162A  160A  118A  26CD   	fcall	_delay_ms
              160A  118A         
  3196                           	line	335
  3197                           ;PR23.c: 335: lcd_config(0b00111000);
  3198  162F  3038               	movlw	(038h)
  3199  1630  160A  118A  24F5   	fcall	_lcd_config
              160A  118A         
  3200                           	line	336
  3201                           ;PR23.c: 336: lcd_config(0b00000110);
  3202  1635  3006               	movlw	(06h)
  3203  1636  160A  118A  24F5   	fcall	_lcd_config
              160A  118A         
  3204                           	line	337
  3205                           ;PR23.c: 337: lcd_config(0b00001100);
  3206  163B  300C               	movlw	(0Ch)
  3207  163C  160A  118A  24F5   	fcall	_lcd_config
              160A  118A         
  3208                           	line	338
  3209                           ;PR23.c: 338: lcd_config(0b00000001);
  3210  1641  3001               	movlw	(01h)
  3211  1642  160A  118A  24F5   	fcall	_lcd_config
              160A  118A         
  3212                           	line	339
  3213                           ;PR23.c: 339: delay_ms(1);
  3214  1647  3000               	movlw	0
  3215  1648  1283               	bcf	status, 5	;RP0=0, select bank0
  3216  1649  1303               	bcf	status, 6	;RP1=0, select bank0
  3217  164A  00A3               	movwf	(?_delay_ms+3)
  3218  164B  3000               	movlw	0
  3219  164C  00A2               	movwf	(?_delay_ms+2)
  3220  164D  3000               	movlw	0
  3221  164E  00A1               	movwf	(?_delay_ms+1)
  3222  164F  3001               	movlw	01h
  3223  1650  00A0               	movwf	(?_delay_ms)
  3224                           
  3225  1651  160A  118A  26CD   	fcall	_delay_ms
              160A  118A         
  3226                           	line	340
  3227                           	
  3228  1656                     l249:	
  3229  1656  0008               	return
  3230                           	opt stack 0
  3231                           GLOBAL	__end_of_lcd_init
  3232  1657                     	__end_of_lcd_init:
  3233                           	signat	_lcd_init,88
  3234                           	global	_line_follow
  3235                           
  3236 ;; *************** function _line_follow *****************
  3237 ;; Defined at:
  3238 ;;		line 639 in file "PR23.c"
  3239 ;; Parameters:    Size  Location     Type
  3240 ;;		None
  3241 ;; Auto vars:     Size  Location     Type
  3242 ;;  memory          1   12[BANK0 ] unsigned char 
  3243 ;; Return value:  Size  Location     Type
  3244 ;;		None               void
  3245 ;; Registers used:
  3246 ;;		wreg, fsr0l, fsr0h, status,2, status,0, btemp+1, pclath, cstack
  3247 ;; Tracked objects:
  3248 ;;		On entry : 0/0
  3249 ;;		On exit  : 0/0
  3250 ;;		Unchanged: 0/0
  3251 ;; Data sizes:     COMMON   BANK0   BANK1   BANK3   BANK2
  3252 ;;      Params:         0       0       0       0       0
  3253 ;;      Locals:         0       1       0       0       0
  3254 ;;      Temps:          0       1       0       0       0
  3255 ;;      Totals:         0       2       0       0       0
  3256 ;;Total ram usage:        2 bytes
  3257 ;; Hardware stack levels used:    1
  3258 ;; Hardware stack levels required when called:    5
  3259 ;; This function calls:
  3260 ;;		_lcd_clr
  3261 ;;		_lcd_string
  3262 ;;		_forward
  3263 ;;		_lcd_2ndline
  3264 ;; This function is called by:
  3265 ;;		_main
  3266 ;; This function uses a non-reentrant model
  3267 ;;
  3268                           psect	text1385,local,class=CODE,delta=2,merge=1
  3269                           global __ptext1385
  3270  0E4C                     __ptext1385:	;psect for function _line_follow
  3271                           psect	text1385
  3272                           	file	"PR23.c"
  3273                           	line	639
  3274                           	global	__size_of_line_follow
  3275  01B4                     	__size_of_line_follow	equ	__end_of_line_follow-_line_follow
  3276                           	
  3277  0E4C                     _line_follow:	
  3278                           	opt	stack 2
  3279                           ; Regs used in _line_follow: [wreg-fsr0h+status,2+status,0+btemp+1+pclath+cstack]
  3280                           	line	640
  3281                           	
  3282  0E4C                     l3422:	
  3283                           ;PR23.c: 640: unsigned char memory = 0;
  3284  0E4C  1283               	bcf	status, 5	;RP0=0, select bank0
  3285  0E4D  1303               	bcf	status, 6	;RP1=0, select bank0
  3286  0E4E  01AC               	clrf	(line_follow@memory)
  3287                           	line	642
  3288                           	
  3289  0E4F                     l3424:	
  3290                           ;PR23.c: 642: lcd_clr();
  3291  0E4F  160A  118A  24C6   	fcall	_lcd_clr
              120A  158A         
  3292                           	line	643
  3293                           	
  3294  0E54                     l3426:	
  3295                           ;PR23.c: 643: lcd_string(" Line Position");
  3296  0E54  30B2               	movlw	low(STR_2|8000h)
  3297  0E55  1283               	bcf	status, 5	;RP0=0, select bank0
  3298  0E56  1303               	bcf	status, 6	;RP1=0, select bank0
  3299  0E57  00A9               	movwf	(?_lcd_string)
  3300  0E58  3082               	movlw	high(STR_2|8000h)
  3301  0E59  00AA               	movwf	((?_lcd_string))+1
  3302  0E5A  160A  118A  25EE   	fcall	_lcd_string
              120A  158A         
  3303  0E5F  2E60               	goto	l3428
  3304                           	line	646
  3305                           ;PR23.c: 646: while(1)
  3306                           	
  3307  0E60                     l370:	
  3308                           	line	648
  3309                           	
  3310  0E60                     l3428:	
  3311                           ;PR23.c: 647: {
  3312                           ;PR23.c: 648: forward();
  3313  0E60  160A  118A  2452   	fcall	_forward
              120A  158A         
  3314                           	line	649
  3315                           	
  3316  0E65                     l3430:	
  3317                           ;PR23.c: 649: if ((RB0==1)&&(RB1==0)&&(RB2==0)&&(RB3==0))
  3318  0E65  1283               	bcf	status, 5	;RP0=0, select bank0
  3319  0E66  1303               	bcf	status, 6	;RP1=0, select bank0
  3320  0E67  1C06               	btfss	(48/8),(48)&7	;volatile
  3321  0E68  2E6A               	goto	u3241
  3322  0E69  2E6B               	goto	u3240
  3323  0E6A                     u3241:
  3324  0E6A  2E8D               	goto	l371
  3325  0E6B                     u3240:
  3326                           	
  3327  0E6B                     l3432:	
  3328  0E6B  1886               	btfsc	(49/8),(49)&7	;volatile
  3329  0E6C  2E6E               	goto	u3251
  3330  0E6D  2E6F               	goto	u3250
  3331  0E6E                     u3251:
  3332  0E6E  2E8D               	goto	l371
  3333  0E6F                     u3250:
  3334                           	
  3335  0E6F                     l3434:	
  3336  0E6F  1906               	btfsc	(50/8),(50)&7	;volatile
  3337  0E70  2E72               	goto	u3261
  3338  0E71  2E73               	goto	u3260
  3339  0E72                     u3261:
  3340  0E72  2E8D               	goto	l371
  3341  0E73                     u3260:
  3342                           	
  3343  0E73                     l3436:	
  3344  0E73  1986               	btfsc	(51/8),(51)&7	;volatile
  3345  0E74  2E76               	goto	u3271
  3346  0E75  2E77               	goto	u3270
  3347  0E76                     u3271:
  3348  0E76  2E8D               	goto	l371
  3349  0E77                     u3270:
  3350                           	line	651
  3351                           	
  3352  0E77                     l3438:	
  3353                           ;PR23.c: 650: {
  3354                           ;PR23.c: 651: CCPR1L = 0;
  3355  0E77  0195               	clrf	(21)	;volatile
  3356                           	line	652
  3357                           	
  3358  0E78                     l3440:	
  3359                           ;PR23.c: 652: CCPR2L = 255;
  3360  0E78  30FF               	movlw	(0FFh)
  3361  0E79  009B               	movwf	(27)	;volatile
  3362                           	line	653
  3363                           	
  3364  0E7A                     l3442:	
  3365                           ;PR23.c: 653: memory = 1;
  3366  0E7A  01AC               	clrf	(line_follow@memory)
  3367  0E7B  0AAC               	incf	(line_follow@memory),f
  3368                           	line	654
  3369                           	
  3370  0E7C                     l3444:	
  3371                           ;PR23.c: 654: lcd_2ndline();
  3372  0E7C  120A  118A  27F9   	fcall	_lcd_2ndline
              120A  158A         
  3373                           	line	655
  3374                           	
  3375  0E81                     l3446:	
  3376                           ;PR23.c: 655: lcd_string ("right  ");
  3377  0E81  3074               	movlw	low(STR_3|8000h)
  3378  0E82  1283               	bcf	status, 5	;RP0=0, select bank0
  3379  0E83  1303               	bcf	status, 6	;RP1=0, select bank0
  3380  0E84  00A9               	movwf	(?_lcd_string)
  3381  0E85  3083               	movlw	high(STR_3|8000h)
  3382  0E86  00AA               	movwf	((?_lcd_string))+1
  3383  0E87  160A  118A  25EE   	fcall	_lcd_string
              120A  158A         
  3384                           	line	656
  3385                           ;PR23.c: 656: }
  3386  0E8C  2E60               	goto	l3428
  3387                           	line	657
  3388                           	
  3389  0E8D                     l371:	
  3390                           ;PR23.c: 657: else if ((RB0==1)&&(RB1==1)&&(RB2==0)&&(RB3==0))
  3391  0E8D  1C06               	btfss	(48/8),(48)&7	;volatile
  3392  0E8E  2E90               	goto	u3281
  3393  0E8F  2E91               	goto	u3280
  3394  0E90                     u3281:
  3395  0E90  2EB4               	goto	l373
  3396  0E91                     u3280:
  3397                           	
  3398  0E91                     l3448:	
  3399  0E91  1C86               	btfss	(49/8),(49)&7	;volatile
  3400  0E92  2E94               	goto	u3291
  3401  0E93  2E95               	goto	u3290
  3402  0E94                     u3291:
  3403  0E94  2EB4               	goto	l373
  3404  0E95                     u3290:
  3405                           	
  3406  0E95                     l3450:	
  3407  0E95  1906               	btfsc	(50/8),(50)&7	;volatile
  3408  0E96  2E98               	goto	u3301
  3409  0E97  2E99               	goto	u3300
  3410  0E98                     u3301:
  3411  0E98  2EB4               	goto	l373
  3412  0E99                     u3300:
  3413                           	
  3414  0E99                     l3452:	
  3415  0E99  1986               	btfsc	(51/8),(51)&7	;volatile
  3416  0E9A  2E9C               	goto	u3311
  3417  0E9B  2E9D               	goto	u3310
  3418  0E9C                     u3311:
  3419  0E9C  2EB4               	goto	l373
  3420  0E9D                     u3310:
  3421                           	line	659
  3422                           	
  3423  0E9D                     l3454:	
  3424                           ;PR23.c: 658: {
  3425                           ;PR23.c: 659: CCPR1L = 180;
  3426  0E9D  30B4               	movlw	(0B4h)
  3427  0E9E  0095               	movwf	(21)	;volatile
  3428                           	line	660
  3429                           ;PR23.c: 660: CCPR2L = 255;
  3430  0E9F  30FF               	movlw	(0FFh)
  3431  0EA0  009B               	movwf	(27)	;volatile
  3432                           	line	661
  3433                           	
  3434  0EA1                     l3456:	
  3435                           ;PR23.c: 661: memory = 1;
  3436  0EA1  01AC               	clrf	(line_follow@memory)
  3437  0EA2  0AAC               	incf	(line_follow@memory),f
  3438                           	line	662
  3439                           	
  3440  0EA3                     l3458:	
  3441                           ;PR23.c: 662: lcd_2ndline();
  3442  0EA3  120A  118A  27F9   	fcall	_lcd_2ndline
              120A  158A         
  3443                           	line	663
  3444                           	
  3445  0EA8                     l3460:	
  3446                           ;PR23.c: 663: lcd_string ("m_right2");
  3447  0EA8  305A               	movlw	low(STR_4|8000h)
  3448  0EA9  1283               	bcf	status, 5	;RP0=0, select bank0
  3449  0EAA  1303               	bcf	status, 6	;RP1=0, select bank0
  3450  0EAB  00A9               	movwf	(?_lcd_string)
  3451  0EAC  3083               	movlw	high(STR_4|8000h)
  3452  0EAD  00AA               	movwf	((?_lcd_string))+1
  3453  0EAE  160A  118A  25EE   	fcall	_lcd_string
              120A  158A         
  3454                           	line	664
  3455                           ;PR23.c: 664: }
  3456  0EB3  2E60               	goto	l3428
  3457                           	line	665
  3458                           	
  3459  0EB4                     l373:	
  3460                           ;PR23.c: 665: else if ((RB0==0)&&(RB1==1)&&(RB2==0)&&(RB3==0))
  3461  0EB4  1806               	btfsc	(48/8),(48)&7	;volatile
  3462  0EB5  2EB7               	goto	u3321
  3463  0EB6  2EB8               	goto	u3320
  3464  0EB7                     u3321:
  3465  0EB7  2EDB               	goto	l375
  3466  0EB8                     u3320:
  3467                           	
  3468  0EB8                     l3462:	
  3469  0EB8  1C86               	btfss	(49/8),(49)&7	;volatile
  3470  0EB9  2EBB               	goto	u3331
  3471  0EBA  2EBC               	goto	u3330
  3472  0EBB                     u3331:
  3473  0EBB  2EDB               	goto	l375
  3474  0EBC                     u3330:
  3475                           	
  3476  0EBC                     l3464:	
  3477  0EBC  1906               	btfsc	(50/8),(50)&7	;volatile
  3478  0EBD  2EBF               	goto	u3341
  3479  0EBE  2EC0               	goto	u3340
  3480  0EBF                     u3341:
  3481  0EBF  2EDB               	goto	l375
  3482  0EC0                     u3340:
  3483                           	
  3484  0EC0                     l3466:	
  3485  0EC0  1986               	btfsc	(51/8),(51)&7	;volatile
  3486  0EC1  2EC3               	goto	u3351
  3487  0EC2  2EC4               	goto	u3350
  3488  0EC3                     u3351:
  3489  0EC3  2EDB               	goto	l375
  3490  0EC4                     u3350:
  3491                           	line	667
  3492                           	
  3493  0EC4                     l3468:	
  3494                           ;PR23.c: 666: {
  3495                           ;PR23.c: 667: CCPR1L = 200;
  3496  0EC4  30C8               	movlw	(0C8h)
  3497  0EC5  0095               	movwf	(21)	;volatile
  3498                           	line	668
  3499                           ;PR23.c: 668: CCPR2L = 255;
  3500  0EC6  30FF               	movlw	(0FFh)
  3501  0EC7  009B               	movwf	(27)	;volatile
  3502                           	line	669
  3503                           	
  3504  0EC8                     l3470:	
  3505                           ;PR23.c: 669: memory = 1;
  3506  0EC8  01AC               	clrf	(line_follow@memory)
  3507  0EC9  0AAC               	incf	(line_follow@memory),f
  3508                           	line	670
  3509                           	
  3510  0ECA                     l3472:	
  3511                           ;PR23.c: 670: lcd_2ndline();
  3512  0ECA  120A  118A  27F9   	fcall	_lcd_2ndline
              120A  158A         
  3513                           	line	671
  3514                           	
  3515  0ECF                     l3474:	
  3516                           ;PR23.c: 671: lcd_string ("m_right1  ");
  3517  0ECF  30F4               	movlw	low(STR_5|8000h)
  3518  0ED0  1283               	bcf	status, 5	;RP0=0, select bank0
  3519  0ED1  1303               	bcf	status, 6	;RP1=0, select bank0
  3520  0ED2  00A9               	movwf	(?_lcd_string)
  3521  0ED3  3082               	movlw	high(STR_5|8000h)
  3522  0ED4  00AA               	movwf	((?_lcd_string))+1
  3523  0ED5  160A  118A  25EE   	fcall	_lcd_string
              120A  158A         
  3524                           	line	672
  3525                           ;PR23.c: 672: }
  3526  0EDA  2E60               	goto	l3428
  3527                           	line	673
  3528                           	
  3529  0EDB                     l375:	
  3530                           ;PR23.c: 673: else if ((RB0==1)&&(RB1==1)&&(RB2==1)&&(RB3==0))
  3531  0EDB  1C06               	btfss	(48/8),(48)&7	;volatile
  3532  0EDC  2EDE               	goto	u3361
  3533  0EDD  2EDF               	goto	u3360
  3534  0EDE                     u3361:
  3535  0EDE  2F02               	goto	l377
  3536  0EDF                     u3360:
  3537                           	
  3538  0EDF                     l3476:	
  3539  0EDF  1C86               	btfss	(49/8),(49)&7	;volatile
  3540  0EE0  2EE2               	goto	u3371
  3541  0EE1  2EE3               	goto	u3370
  3542  0EE2                     u3371:
  3543  0EE2  2F02               	goto	l377
  3544  0EE3                     u3370:
  3545                           	
  3546  0EE3                     l3478:	
  3547  0EE3  1D06               	btfss	(50/8),(50)&7	;volatile
  3548  0EE4  2EE6               	goto	u3381
  3549  0EE5  2EE7               	goto	u3380
  3550  0EE6                     u3381:
  3551  0EE6  2F02               	goto	l377
  3552  0EE7                     u3380:
  3553                           	
  3554  0EE7                     l3480:	
  3555  0EE7  1986               	btfsc	(51/8),(51)&7	;volatile
  3556  0EE8  2EEA               	goto	u3391
  3557  0EE9  2EEB               	goto	u3390
  3558  0EEA                     u3391:
  3559  0EEA  2F02               	goto	l377
  3560  0EEB                     u3390:
  3561                           	line	676
  3562                           	
  3563  0EEB                     l3482:	
  3564                           ;PR23.c: 675: {
  3565                           ;PR23.c: 676: CCPR1L = 200;
  3566  0EEB  30C8               	movlw	(0C8h)
  3567  0EEC  0095               	movwf	(21)	;volatile
  3568                           	line	677
  3569                           ;PR23.c: 677: CCPR2L = 255;
  3570  0EED  30FF               	movlw	(0FFh)
  3571  0EEE  009B               	movwf	(27)	;volatile
  3572                           	line	678
  3573                           	
  3574  0EEF                     l3484:	
  3575                           ;PR23.c: 678: memory = 1;
  3576  0EEF  01AC               	clrf	(line_follow@memory)
  3577  0EF0  0AAC               	incf	(line_follow@memory),f
  3578                           	line	679
  3579                           	
  3580  0EF1                     l3486:	
  3581                           ;PR23.c: 679: lcd_2ndline();
  3582  0EF1  120A  118A  27F9   	fcall	_lcd_2ndline
              120A  158A         
  3583                           	line	680
  3584                           	
  3585  0EF6                     l3488:	
  3586                           ;PR23.c: 680: lcd_string ("m_right1  ");
  3587  0EF6  30F4               	movlw	low(STR_6|8000h)
  3588  0EF7  1283               	bcf	status, 5	;RP0=0, select bank0
  3589  0EF8  1303               	bcf	status, 6	;RP1=0, select bank0
  3590  0EF9  00A9               	movwf	(?_lcd_string)
  3591  0EFA  3082               	movlw	high(STR_6|8000h)
  3592  0EFB  00AA               	movwf	((?_lcd_string))+1
  3593  0EFC  160A  118A  25EE   	fcall	_lcd_string
              120A  158A         
  3594                           	line	681
  3595                           ;PR23.c: 681: }
  3596  0F01  2E60               	goto	l3428
  3597                           	line	682
  3598                           	
  3599  0F02                     l377:	
  3600                           ;PR23.c: 682: else if ((RB0==0)&&(RB1==1)&&(RB2==1)&&(RB3==0))
  3601  0F02  1806               	btfsc	(48/8),(48)&7	;volatile
  3602  0F03  2F05               	goto	u3401
  3603  0F04  2F06               	goto	u3400
  3604  0F05                     u3401:
  3605  0F05  2F2B               	goto	l379
  3606  0F06                     u3400:
  3607                           	
  3608  0F06                     l3490:	
  3609  0F06  1C86               	btfss	(49/8),(49)&7	;volatile
  3610  0F07  2F09               	goto	u3411
  3611  0F08  2F0A               	goto	u3410
  3612  0F09                     u3411:
  3613  0F09  2F2B               	goto	l379
  3614  0F0A                     u3410:
  3615                           	
  3616  0F0A                     l3492:	
  3617  0F0A  1D06               	btfss	(50/8),(50)&7	;volatile
  3618  0F0B  2F0D               	goto	u3421
  3619  0F0C  2F0E               	goto	u3420
  3620  0F0D                     u3421:
  3621  0F0D  2F2B               	goto	l379
  3622  0F0E                     u3420:
  3623                           	
  3624  0F0E                     l3494:	
  3625  0F0E  1986               	btfsc	(51/8),(51)&7	;volatile
  3626  0F0F  2F11               	goto	u3431
  3627  0F10  2F12               	goto	u3430
  3628  0F11                     u3431:
  3629  0F11  2F2B               	goto	l379
  3630  0F12                     u3430:
  3631                           	line	684
  3632                           	
  3633  0F12                     l3496:	
  3634                           ;PR23.c: 683: {
  3635                           ;PR23.c: 684: CCPR1L = 255;
  3636  0F12  30FF               	movlw	(0FFh)
  3637  0F13  0095               	movwf	(21)	;volatile
  3638                           	line	685
  3639                           ;PR23.c: 685: CCPR2L = 255;
  3640  0F14  30FF               	movlw	(0FFh)
  3641  0F15  009B               	movwf	(27)	;volatile
  3642                           	line	686
  3643                           ;PR23.c: 686: memory = 2;
  3644  0F16  3002               	movlw	(02h)
  3645  0F17  00AB               	movwf	(??_line_follow+0)+0
  3646  0F18  082B               	movf	(??_line_follow+0)+0,w
  3647  0F19  00AC               	movwf	(line_follow@memory)
  3648                           	line	687
  3649                           	
  3650  0F1A                     l3498:	
  3651                           ;PR23.c: 687: lcd_2ndline();
  3652  0F1A  120A  118A  27F9   	fcall	_lcd_2ndline
              120A  158A         
  3653                           	line	688
  3654                           	
  3655  0F1F                     l3500:	
  3656                           ;PR23.c: 688: lcd_string ("middle ");
  3657  0F1F  307C               	movlw	low(STR_7|8000h)
  3658  0F20  1283               	bcf	status, 5	;RP0=0, select bank0
  3659  0F21  1303               	bcf	status, 6	;RP1=0, select bank0
  3660  0F22  00A9               	movwf	(?_lcd_string)
  3661  0F23  3083               	movlw	high(STR_7|8000h)
  3662  0F24  00AA               	movwf	((?_lcd_string))+1
  3663  0F25  160A  118A  25EE   	fcall	_lcd_string
              120A  158A         
  3664                           	line	689
  3665                           ;PR23.c: 689: }
  3666  0F2A  2E60               	goto	l3428
  3667                           	line	690
  3668                           	
  3669  0F2B                     l379:	
  3670                           ;PR23.c: 690: else if ((RB0==0)&&(RB1==0)&&(RB2==1)&&(RB3==0))
  3671  0F2B  1806               	btfsc	(48/8),(48)&7	;volatile
  3672  0F2C  2F2E               	goto	u3441
  3673  0F2D  2F2F               	goto	u3440
  3674  0F2E                     u3441:
  3675  0F2E  2F54               	goto	l381
  3676  0F2F                     u3440:
  3677                           	
  3678  0F2F                     l3502:	
  3679  0F2F  1886               	btfsc	(49/8),(49)&7	;volatile
  3680  0F30  2F32               	goto	u3451
  3681  0F31  2F33               	goto	u3450
  3682  0F32                     u3451:
  3683  0F32  2F54               	goto	l381
  3684  0F33                     u3450:
  3685                           	
  3686  0F33                     l3504:	
  3687  0F33  1D06               	btfss	(50/8),(50)&7	;volatile
  3688  0F34  2F36               	goto	u3461
  3689  0F35  2F37               	goto	u3460
  3690  0F36                     u3461:
  3691  0F36  2F54               	goto	l381
  3692  0F37                     u3460:
  3693                           	
  3694  0F37                     l3506:	
  3695  0F37  1986               	btfsc	(51/8),(51)&7	;volatile
  3696  0F38  2F3A               	goto	u3471
  3697  0F39  2F3B               	goto	u3470
  3698  0F3A                     u3471:
  3699  0F3A  2F54               	goto	l381
  3700  0F3B                     u3470:
  3701                           	line	692
  3702                           	
  3703  0F3B                     l3508:	
  3704                           ;PR23.c: 691: {
  3705                           ;PR23.c: 692: CCPR1L = 255;
  3706  0F3B  30FF               	movlw	(0FFh)
  3707  0F3C  0095               	movwf	(21)	;volatile
  3708                           	line	693
  3709                           ;PR23.c: 693: CCPR2L = 200;
  3710  0F3D  30C8               	movlw	(0C8h)
  3711  0F3E  009B               	movwf	(27)	;volatile
  3712                           	line	694
  3713                           ;PR23.c: 694: memory = 3;
  3714  0F3F  3003               	movlw	(03h)
  3715  0F40  00AB               	movwf	(??_line_follow+0)+0
  3716  0F41  082B               	movf	(??_line_follow+0)+0,w
  3717  0F42  00AC               	movwf	(line_follow@memory)
  3718                           	line	695
  3719                           	
  3720  0F43                     l3510:	
  3721                           ;PR23.c: 695: lcd_2ndline();
  3722  0F43  120A  118A  27F9   	fcall	_lcd_2ndline
              120A  158A         
  3723                           	line	696
  3724                           	
  3725  0F48                     l3512:	
  3726                           ;PR23.c: 696: lcd_string ("m_left1   ");
  3727  0F48  30E9               	movlw	low(STR_8|8000h)
  3728  0F49  1283               	bcf	status, 5	;RP0=0, select bank0
  3729  0F4A  1303               	bcf	status, 6	;RP1=0, select bank0
  3730  0F4B  00A9               	movwf	(?_lcd_string)
  3731  0F4C  3082               	movlw	high(STR_8|8000h)
  3732  0F4D  00AA               	movwf	((?_lcd_string))+1
  3733  0F4E  160A  118A  25EE   	fcall	_lcd_string
              120A  158A         
  3734                           	line	697
  3735                           ;PR23.c: 697: }
  3736  0F53  2E60               	goto	l3428
  3737                           	line	698
  3738                           	
  3739  0F54                     l381:	
  3740                           ;PR23.c: 698: else if ((RB0==0)&&(RB1==1)&&(RB2==1)&&(RB3==1))
  3741  0F54  1806               	btfsc	(48/8),(48)&7	;volatile
  3742  0F55  2F57               	goto	u3481
  3743  0F56  2F58               	goto	u3480
  3744  0F57                     u3481:
  3745  0F57  2F7D               	goto	l383
  3746  0F58                     u3480:
  3747                           	
  3748  0F58                     l3514:	
  3749  0F58  1C86               	btfss	(49/8),(49)&7	;volatile
  3750  0F59  2F5B               	goto	u3491
  3751  0F5A  2F5C               	goto	u3490
  3752  0F5B                     u3491:
  3753  0F5B  2F7D               	goto	l383
  3754  0F5C                     u3490:
  3755                           	
  3756  0F5C                     l3516:	
  3757  0F5C  1D06               	btfss	(50/8),(50)&7	;volatile
  3758  0F5D  2F5F               	goto	u3501
  3759  0F5E  2F60               	goto	u3500
  3760  0F5F                     u3501:
  3761  0F5F  2F7D               	goto	l383
  3762  0F60                     u3500:
  3763                           	
  3764  0F60                     l3518:	
  3765  0F60  1D86               	btfss	(51/8),(51)&7	;volatile
  3766  0F61  2F63               	goto	u3511
  3767  0F62  2F64               	goto	u3510
  3768  0F63                     u3511:
  3769  0F63  2F7D               	goto	l383
  3770  0F64                     u3510:
  3771                           	line	700
  3772                           	
  3773  0F64                     l3520:	
  3774                           ;PR23.c: 699: {
  3775                           ;PR23.c: 700: CCPR1L = 255;
  3776  0F64  30FF               	movlw	(0FFh)
  3777  0F65  0095               	movwf	(21)	;volatile
  3778                           	line	701
  3779                           ;PR23.c: 701: CCPR2L = 200;
  3780  0F66  30C8               	movlw	(0C8h)
  3781  0F67  009B               	movwf	(27)	;volatile
  3782                           	line	702
  3783                           ;PR23.c: 702: memory = 3;
  3784  0F68  3003               	movlw	(03h)
  3785  0F69  00AB               	movwf	(??_line_follow+0)+0
  3786  0F6A  082B               	movf	(??_line_follow+0)+0,w
  3787  0F6B  00AC               	movwf	(line_follow@memory)
  3788                           	line	703
  3789                           	
  3790  0F6C                     l3522:	
  3791                           ;PR23.c: 703: lcd_2ndline();
  3792  0F6C  120A  118A  27F9   	fcall	_lcd_2ndline
              120A  158A         
  3793                           	line	704
  3794                           	
  3795  0F71                     l3524:	
  3796                           ;PR23.c: 704: lcd_string ("m_left1   ");
  3797  0F71  30E9               	movlw	low(STR_9|8000h)
  3798  0F72  1283               	bcf	status, 5	;RP0=0, select bank0
  3799  0F73  1303               	bcf	status, 6	;RP1=0, select bank0
  3800  0F74  00A9               	movwf	(?_lcd_string)
  3801  0F75  3082               	movlw	high(STR_9|8000h)
  3802  0F76  00AA               	movwf	((?_lcd_string))+1
  3803  0F77  160A  118A  25EE   	fcall	_lcd_string
              120A  158A         
  3804                           	line	705
  3805                           ;PR23.c: 705: }
  3806  0F7C  2E60               	goto	l3428
  3807                           	line	706
  3808                           	
  3809  0F7D                     l383:	
  3810                           ;PR23.c: 706: else if ((RB0==0)&&(RB1==0)&&(RB2==1)&&(RB3==1))
  3811  0F7D  1806               	btfsc	(48/8),(48)&7	;volatile
  3812  0F7E  2F80               	goto	u3521
  3813  0F7F  2F81               	goto	u3520
  3814  0F80                     u3521:
  3815  0F80  2FA6               	goto	l385
  3816  0F81                     u3520:
  3817                           	
  3818  0F81                     l3526:	
  3819  0F81  1886               	btfsc	(49/8),(49)&7	;volatile
  3820  0F82  2F84               	goto	u3531
  3821  0F83  2F85               	goto	u3530
  3822  0F84                     u3531:
  3823  0F84  2FA6               	goto	l385
  3824  0F85                     u3530:
  3825                           	
  3826  0F85                     l3528:	
  3827  0F85  1D06               	btfss	(50/8),(50)&7	;volatile
  3828  0F86  2F88               	goto	u3541
  3829  0F87  2F89               	goto	u3540
  3830  0F88                     u3541:
  3831  0F88  2FA6               	goto	l385
  3832  0F89                     u3540:
  3833                           	
  3834  0F89                     l3530:	
  3835  0F89  1D86               	btfss	(51/8),(51)&7	;volatile
  3836  0F8A  2F8C               	goto	u3551
  3837  0F8B  2F8D               	goto	u3550
  3838  0F8C                     u3551:
  3839  0F8C  2FA6               	goto	l385
  3840  0F8D                     u3550:
  3841                           	line	708
  3842                           	
  3843  0F8D                     l3532:	
  3844                           ;PR23.c: 707: {
  3845                           ;PR23.c: 708: CCPR1L = 255;
  3846  0F8D  30FF               	movlw	(0FFh)
  3847  0F8E  0095               	movwf	(21)	;volatile
  3848                           	line	709
  3849                           ;PR23.c: 709: CCPR2L = 180;
  3850  0F8F  30B4               	movlw	(0B4h)
  3851  0F90  009B               	movwf	(27)	;volatile
  3852                           	line	710
  3853                           ;PR23.c: 710: memory = 3;
  3854  0F91  3003               	movlw	(03h)
  3855  0F92  00AB               	movwf	(??_line_follow+0)+0
  3856  0F93  082B               	movf	(??_line_follow+0)+0,w
  3857  0F94  00AC               	movwf	(line_follow@memory)
  3858                           	line	711
  3859                           	
  3860  0F95                     l3534:	
  3861                           ;PR23.c: 711: lcd_2ndline();
  3862  0F95  120A  118A  27F9   	fcall	_lcd_2ndline
              120A  158A         
  3863                           	line	712
  3864                           	
  3865  0F9A                     l3536:	
  3866                           ;PR23.c: 712: lcd_string ("m_left2 ");
  3867  0F9A  3048               	movlw	low(STR_10|8000h)
  3868  0F9B  1283               	bcf	status, 5	;RP0=0, select bank0
  3869  0F9C  1303               	bcf	status, 6	;RP1=0, select bank0
  3870  0F9D  00A9               	movwf	(?_lcd_string)
  3871  0F9E  3083               	movlw	high(STR_10|8000h)
  3872  0F9F  00AA               	movwf	((?_lcd_string))+1
  3873  0FA0  160A  118A  25EE   	fcall	_lcd_string
              120A  158A         
  3874                           	line	713
  3875                           ;PR23.c: 713: }
  3876  0FA5  2E60               	goto	l3428
  3877                           	line	714
  3878                           	
  3879  0FA6                     l385:	
  3880                           ;PR23.c: 714: else if ((RB0==0)&&(RB1==0)&&(RB2==0)&&(RB3==1))
  3881  0FA6  1806               	btfsc	(48/8),(48)&7	;volatile
  3882  0FA7  2FA9               	goto	u3561
  3883  0FA8  2FAA               	goto	u3560
  3884  0FA9                     u3561:
  3885  0FA9  2FCE               	goto	l387
  3886  0FAA                     u3560:
  3887                           	
  3888  0FAA                     l3538:	
  3889  0FAA  1886               	btfsc	(49/8),(49)&7	;volatile
  3890  0FAB  2FAD               	goto	u3571
  3891  0FAC  2FAE               	goto	u3570
  3892  0FAD                     u3571:
  3893  0FAD  2FCE               	goto	l387
  3894  0FAE                     u3570:
  3895                           	
  3896  0FAE                     l3540:	
  3897  0FAE  1906               	btfsc	(50/8),(50)&7	;volatile
  3898  0FAF  2FB1               	goto	u3581
  3899  0FB0  2FB2               	goto	u3580
  3900  0FB1                     u3581:
  3901  0FB1  2FCE               	goto	l387
  3902  0FB2                     u3580:
  3903                           	
  3904  0FB2                     l3542:	
  3905  0FB2  1D86               	btfss	(51/8),(51)&7	;volatile
  3906  0FB3  2FB5               	goto	u3591
  3907  0FB4  2FB6               	goto	u3590
  3908  0FB5                     u3591:
  3909  0FB5  2FCE               	goto	l387
  3910  0FB6                     u3590:
  3911                           	line	716
  3912                           	
  3913  0FB6                     l3544:	
  3914                           ;PR23.c: 715: {
  3915                           ;PR23.c: 716: CCPR1L = 255;
  3916  0FB6  30FF               	movlw	(0FFh)
  3917  0FB7  0095               	movwf	(21)	;volatile
  3918                           	line	717
  3919                           	
  3920  0FB8                     l3546:	
  3921                           ;PR23.c: 717: CCPR2L = 0;
  3922  0FB8  019B               	clrf	(27)	;volatile
  3923                           	line	718
  3924                           	
  3925  0FB9                     l3548:	
  3926                           ;PR23.c: 718: memory = 3;
  3927  0FB9  3003               	movlw	(03h)
  3928  0FBA  00AB               	movwf	(??_line_follow+0)+0
  3929  0FBB  082B               	movf	(??_line_follow+0)+0,w
  3930  0FBC  00AC               	movwf	(line_follow@memory)
  3931                           	line	719
  3932                           	
  3933  0FBD                     l3550:	
  3934                           ;PR23.c: 719: lcd_2ndline();
  3935  0FBD  120A  118A  27F9   	fcall	_lcd_2ndline
              120A  158A         
  3936                           	line	720
  3937                           	
  3938  0FC2                     l3552:	
  3939                           ;PR23.c: 720: lcd_string ("left   ");
  3940  0FC2  306C               	movlw	low(STR_11|8000h)
  3941  0FC3  1283               	bcf	status, 5	;RP0=0, select bank0
  3942  0FC4  1303               	bcf	status, 6	;RP1=0, select bank0
  3943  0FC5  00A9               	movwf	(?_lcd_string)
  3944  0FC6  3083               	movlw	high(STR_11|8000h)
  3945  0FC7  00AA               	movwf	((?_lcd_string))+1
  3946  0FC8  160A  118A  25EE   	fcall	_lcd_string
              120A  158A         
  3947                           	line	721
  3948                           ;PR23.c: 721: }
  3949  0FCD  2E60               	goto	l3428
  3950                           	line	722
  3951                           	
  3952  0FCE                     l387:	
  3953                           ;PR23.c: 722: else if ((RB0==0)&&(RB1==0)&&(RB2==0)&&(RB3==0))
  3954  0FCE  1806               	btfsc	(48/8),(48)&7	;volatile
  3955  0FCF  2FD1               	goto	u3601
  3956  0FD0  2FD2               	goto	u3600
  3957  0FD1                     u3601:
  3958  0FD1  2E60               	goto	l3428
  3959  0FD2                     u3600:
  3960                           	
  3961  0FD2                     l3554:	
  3962  0FD2  1886               	btfsc	(49/8),(49)&7	;volatile
  3963  0FD3  2FD5               	goto	u3611
  3964  0FD4  2FD6               	goto	u3610
  3965  0FD5                     u3611:
  3966  0FD5  2E60               	goto	l3428
  3967  0FD6                     u3610:
  3968                           	
  3969  0FD6                     l3556:	
  3970  0FD6  1906               	btfsc	(50/8),(50)&7	;volatile
  3971  0FD7  2FD9               	goto	u3621
  3972  0FD8  2FDA               	goto	u3620
  3973  0FD9                     u3621:
  3974  0FD9  2E60               	goto	l3428
  3975  0FDA                     u3620:
  3976                           	
  3977  0FDA                     l3558:	
  3978  0FDA  1986               	btfsc	(51/8),(51)&7	;volatile
  3979  0FDB  2FDD               	goto	u3631
  3980  0FDC  2FDE               	goto	u3630
  3981  0FDD                     u3631:
  3982  0FDD  2E60               	goto	l3428
  3983  0FDE                     u3630:
  3984                           	line	724
  3985                           	
  3986  0FDE                     l3560:	
  3987                           ;PR23.c: 723: {
  3988                           ;PR23.c: 724: if (memory == 1 )
  3989  0FDE  082C               	movf	(line_follow@memory),w
  3990  0FDF  3A01               	xorlw	01h
  3991  0FE0  1D03               	skipz
  3992  0FE1  2FE3               	goto	u3641
  3993  0FE2  2FE4               	goto	u3640
  3994  0FE3                     u3641:
  3995  0FE3  2FE8               	goto	l3566
  3996  0FE4                     u3640:
  3997                           	line	726
  3998                           	
  3999  0FE4                     l3562:	
  4000                           ;PR23.c: 725: {
  4001                           ;PR23.c: 726: CCPR1L = 0;
  4002  0FE4  0195               	clrf	(21)	;volatile
  4003                           	line	727
  4004                           	
  4005  0FE5                     l3564:	
  4006                           ;PR23.c: 727: CCPR2L = 255;
  4007  0FE5  30FF               	movlw	(0FFh)
  4008  0FE6  009B               	movwf	(27)	;volatile
  4009                           	line	728
  4010                           ;PR23.c: 728: }
  4011  0FE7  2E60               	goto	l3428
  4012                           	line	729
  4013                           	
  4014  0FE8                     l390:	
  4015                           	
  4016  0FE8                     l3566:	
  4017                           ;PR23.c: 729: else if (memory == 3)
  4018  0FE8  082C               	movf	(line_follow@memory),w
  4019  0FE9  3A03               	xorlw	03h
  4020  0FEA  1D03               	skipz
  4021  0FEB  2FED               	goto	u3651
  4022  0FEC  2FEE               	goto	u3650
  4023  0FED                     u3651:
  4024  0FED  2E60               	goto	l3428
  4025  0FEE                     u3650:
  4026                           	line	731
  4027                           	
  4028  0FEE                     l3568:	
  4029                           ;PR23.c: 730: {
  4030                           ;PR23.c: 731: CCPR1L = 255;
  4031  0FEE  30FF               	movlw	(0FFh)
  4032  0FEF  0095               	movwf	(21)	;volatile
  4033                           	line	732
  4034                           	
  4035  0FF0                     l3570:	
  4036                           ;PR23.c: 732: CCPR2L = 0;
  4037  0FF0  019B               	clrf	(27)	;volatile
  4038  0FF1  2E60               	goto	l3428
  4039                           	line	733
  4040                           	
  4041  0FF2                     l392:	
  4042  0FF2  2E60               	goto	l3428
  4043                           	line	734
  4044                           	
  4045  0FF3                     l391:	
  4046  0FF3  2E60               	goto	l3428
  4047                           	
  4048  0FF4                     l389:	
  4049  0FF4  2E60               	goto	l3428
  4050                           	line	735
  4051                           	
  4052  0FF5                     l388:	
  4053  0FF5  2E60               	goto	l3428
  4054                           	
  4055  0FF6                     l386:	
  4056  0FF6  2E60               	goto	l3428
  4057                           	
  4058  0FF7                     l384:	
  4059  0FF7  2E60               	goto	l3428
  4060                           	
  4061  0FF8                     l382:	
  4062  0FF8  2E60               	goto	l3428
  4063                           	
  4064  0FF9                     l380:	
  4065  0FF9  2E60               	goto	l3428
  4066                           	
  4067  0FFA                     l378:	
  4068  0FFA  2E60               	goto	l3428
  4069                           	
  4070  0FFB                     l376:	
  4071  0FFB  2E60               	goto	l3428
  4072                           	
  4073  0FFC                     l374:	
  4074  0FFC  2E60               	goto	l3428
  4075                           	
  4076  0FFD                     l372:	
  4077  0FFD  2E60               	goto	l3428
  4078                           	
  4079  0FFE                     l393:	
  4080                           	line	646
  4081  0FFE  2E60               	goto	l3428
  4082                           	
  4083  0FFF                     l394:	
  4084                           	line	736
  4085                           	
  4086  0FFF                     l395:	
  4087  0FFF  0008               	return
  4088                           	opt stack 0
  4089                           GLOBAL	__end_of_line_follow
  4090  1000                     	__end_of_line_follow:
  4091                           	signat	_line_follow,88
  4092                           	global	_ultrasonic
  4093                           
  4094 ;; *************** function _ultrasonic *****************
  4095 ;; Defined at:
  4096 ;;		line 743 in file "PR23.c"
  4097 ;; Parameters:    Size  Location     Type
  4098 ;;		None
  4099 ;; Auto vars:     Size  Location     Type
  4100 ;;  distance        2   58[BANK0 ] unsigned int 
  4101 ;;  ez1_mode        1   57[BANK0 ] unsigned char 
  4102 ;; Return value:  Size  Location     Type
  4103 ;;		None               void
  4104 ;; Registers used:
  4105 ;;		wreg, fsr0l, fsr0h, fsr1l, fsr1h, status,2, status,0, btemp+1, pclath, cstack
  4106 ;; Tracked objects:
  4107 ;;		On entry : 0/0
  4108 ;;		On exit  : 0/0
  4109 ;;		Unchanged: 0/0
  4110 ;; Data sizes:     COMMON   BANK0   BANK1   BANK3   BANK2
  4111 ;;      Params:         0       0       0       0       0
  4112 ;;      Locals:         0       3       0       0       0
  4113 ;;      Temps:          0       1       0       0       0
  4114 ;;      Totals:         0       4       0       0       0
  4115 ;;Total ram usage:        4 bytes
  4116 ;; Hardware stack levels used:    1
  4117 ;; Hardware stack levels required when called:    6
  4118 ;; This function calls:
  4119 ;;		_lcd_clr
  4120 ;;		_lcd_string
  4121 ;;		_lcd_goto
  4122 ;;		_lcd_2ndline
  4123 ;;		_beep
  4124 ;;		_lcd_clr_line
  4125 ;;		_timer1_init
  4126 ;;		_enable_global_int
  4127 ;;		_uart_init
  4128 ;;		_delay_ms
  4129 ;;		_disable_global_int
  4130 ;;		_us_value
  4131 ;;		_stop
  4132 ;;		_lcd_dis_num
  4133 ;;		_forward
  4134 ;;		_backward
  4135 ;; This function is called by:
  4136 ;;		_main
  4137 ;; This function uses a non-reentrant model
  4138 ;;
  4139                           psect	text1386,local,class=CODE,delta=2,merge=1
  4140                           global __ptext1386
  4141  0CB0                     __ptext1386:	;psect for function _ultrasonic
  4142                           psect	text1386
  4143                           	file	"PR23.c"
  4144                           	line	743
  4145                           	global	__size_of_ultrasonic
  4146  019C                     	__size_of_ultrasonic	equ	__end_of_ultrasonic-_ultrasonic
  4147                           	
  4148  0CB0                     _ultrasonic:	
  4149                           	opt	stack 1
  4150                           ; Regs used in _ultrasonic: [allreg]
  4151                           	line	744
  4152                           	
  4153  0CB0                     l3572:	
  4154                           ;PR23.c: 744: unsigned int distance = 0;
  4155  0CB0  1283               	bcf	status, 5	;RP0=0, select bank0
  4156  0CB1  1303               	bcf	status, 6	;RP1=0, select bank0
  4157  0CB2  01DA               	clrf	(ultrasonic@distance)
  4158  0CB3  01DB               	clrf	(ultrasonic@distance+1)
  4159                           	line	745
  4160                           	
  4161  0CB4                     l3574:	
  4162                           ;PR23.c: 745: char ez1_mode = 1;
  4163  0CB4  01D9               	clrf	(ultrasonic@ez1_mode)
  4164  0CB5  0AD9               	incf	(ultrasonic@ez1_mode),f
  4165                           	line	746
  4166                           	
  4167  0CB6                     l3576:	
  4168                           ;PR23.c: 746: lcd_clr();
  4169  0CB6  160A  118A  24C6   	fcall	_lcd_clr
              120A  158A         
  4170                           	line	747
  4171                           	
  4172  0CBB                     l3578:	
  4173                           ;PR23.c: 747: lcd_string("Measure : ");
  4174  0CBB  30FF               	movlw	low(STR_12|8000h)
  4175  0CBC  1283               	bcf	status, 5	;RP0=0, select bank0
  4176  0CBD  1303               	bcf	status, 6	;RP1=0, select bank0
  4177  0CBE  00A9               	movwf	(?_lcd_string)
  4178  0CBF  3082               	movlw	high(STR_12|8000h)
  4179  0CC0  00AA               	movwf	((?_lcd_string))+1
  4180  0CC1  160A  118A  25EE   	fcall	_lcd_string
              120A  158A         
  4181                           	line	748
  4182                           	
  4183  0CC6                     l3580:	
  4184                           ;PR23.c: 748: lcd_goto(0x09);
  4185  0CC6  3009               	movlw	(09h)
  4186  0CC7  120A  158A  2000   	fcall	_lcd_goto
              120A  158A         
  4187                           	line	749
  4188                           	
  4189  0CCC                     l3582:	
  4190                           ;PR23.c: 749: lcd_string("ADC");
  4191  0CCC  30AE               	movlw	low(STR_13|8000h)
  4192  0CCD  1283               	bcf	status, 5	;RP0=0, select bank0
  4193  0CCE  1303               	bcf	status, 6	;RP1=0, select bank0
  4194  0CCF  00A9               	movwf	(?_lcd_string)
  4195  0CD0  3083               	movlw	high(STR_13|8000h)
  4196  0CD1  00AA               	movwf	((?_lcd_string))+1
  4197  0CD2  160A  118A  25EE   	fcall	_lcd_string
              120A  158A         
  4198                           	line	750
  4199                           	
  4200  0CD7                     l3584:	
  4201                           ;PR23.c: 750: lcd_2ndline();
  4202  0CD7  120A  118A  27F9   	fcall	_lcd_2ndline
              120A  158A         
  4203                           	line	751
  4204                           	
  4205  0CDC                     l3586:	
  4206                           ;PR23.c: 751: lcd_string("SW1++  SW2->Run");
  4207  0CDC  3084               	movlw	low(STR_14|8000h)
  4208  0CDD  1283               	bcf	status, 5	;RP0=0, select bank0
  4209  0CDE  1303               	bcf	status, 6	;RP1=0, select bank0
  4210  0CDF  00A9               	movwf	(?_lcd_string)
  4211  0CE0  3082               	movlw	high(STR_14|8000h)
  4212  0CE1  00AA               	movwf	((?_lcd_string))+1
  4213  0CE2  160A  118A  25EE   	fcall	_lcd_string
              120A  158A         
  4214                           	line	756
  4215                           ;PR23.c: 756: while(RE1 == 1)
  4216  0CE7  2D39               	goto	l398
  4217                           	
  4218  0CE8                     l399:	
  4219                           	line	758
  4220                           ;PR23.c: 757: {
  4221                           ;PR23.c: 758: if(RE0 == 0)
  4222  0CE8  1809               	btfsc	(72/8),(72)&7	;volatile
  4223  0CE9  2CEB               	goto	u3661
  4224  0CEA  2CEC               	goto	u3660
  4225  0CEB                     u3661:
  4226  0CEB  2D39               	goto	l398
  4227  0CEC                     u3660:
  4228  0CEC  2CEE               	goto	l401
  4229                           	line	760
  4230                           	
  4231  0CED                     l3588:	
  4232                           ;PR23.c: 759: {
  4233                           ;PR23.c: 760: while(RE0==0);
  4234  0CED  2CEE               	goto	l401
  4235                           	
  4236  0CEE                     l402:	
  4237                           	
  4238  0CEE                     l401:	
  4239  0CEE  1C09               	btfss	(72/8),(72)&7	;volatile
  4240  0CEF  2CF1               	goto	u3671
  4241  0CF0  2CF2               	goto	u3670
  4242  0CF1                     u3671:
  4243  0CF1  2CEE               	goto	l401
  4244  0CF2                     u3670:
  4245  0CF2  2CF3               	goto	l3590
  4246                           	
  4247  0CF3                     l403:	
  4248                           	line	761
  4249                           	
  4250  0CF3                     l3590:	
  4251                           ;PR23.c: 761: beep(1);
  4252  0CF3  3001               	movlw	(01h)
  4253  0CF4  160A  118A  25BF   	fcall	_beep
              120A  158A         
  4254                           	line	762
  4255                           	
  4256  0CF9                     l3592:	
  4257                           ;PR23.c: 762: ez1_mode++;
  4258  0CF9  3001               	movlw	(01h)
  4259  0CFA  1283               	bcf	status, 5	;RP0=0, select bank0
  4260  0CFB  1303               	bcf	status, 6	;RP1=0, select bank0
  4261  0CFC  00D8               	movwf	(??_ultrasonic+0)+0
  4262  0CFD  0858               	movf	(??_ultrasonic+0)+0,w
  4263  0CFE  07D9               	addwf	(ultrasonic@ez1_mode),f
  4264                           	line	763
  4265                           	
  4266  0CFF                     l3594:	
  4267                           ;PR23.c: 763: lcd_goto(0x09);
  4268  0CFF  3009               	movlw	(09h)
  4269  0D00  120A  158A  2000   	fcall	_lcd_goto
              120A  158A         
  4270                           	line	764
  4271                           ;PR23.c: 764: switch (ez1_mode)
  4272  0D05  2D2E               	goto	l3604
  4273                           	line	766
  4274                           ;PR23.c: 765: {
  4275                           ;PR23.c: 766: case 2:
  4276                           	
  4277  0D06                     l405:	
  4278                           	line	767
  4279                           	
  4280  0D06                     l3596:	
  4281                           ;PR23.c: 767: lcd_string("PWM ");
  4282  0D06  309F               	movlw	low(STR_15|8000h)
  4283  0D07  1283               	bcf	status, 5	;RP0=0, select bank0
  4284  0D08  1303               	bcf	status, 6	;RP1=0, select bank0
  4285  0D09  00A9               	movwf	(?_lcd_string)
  4286  0D0A  3083               	movlw	high(STR_15|8000h)
  4287  0D0B  00AA               	movwf	((?_lcd_string))+1
  4288  0D0C  160A  118A  25EE   	fcall	_lcd_string
              120A  158A         
  4289                           	line	768
  4290                           ;PR23.c: 768: break;
  4291  0D11  2D39               	goto	l398
  4292                           	line	770
  4293                           ;PR23.c: 770: case 3:
  4294                           	
  4295  0D12                     l407:	
  4296                           	line	771
  4297                           	
  4298  0D12                     l3598:	
  4299                           ;PR23.c: 771: lcd_string("UART");
  4300  0D12  30A4               	movlw	low(STR_16|8000h)
  4301  0D13  1283               	bcf	status, 5	;RP0=0, select bank0
  4302  0D14  1303               	bcf	status, 6	;RP1=0, select bank0
  4303  0D15  00A9               	movwf	(?_lcd_string)
  4304  0D16  3083               	movlw	high(STR_16|8000h)
  4305  0D17  00AA               	movwf	((?_lcd_string))+1
  4306  0D18  160A  118A  25EE   	fcall	_lcd_string
              120A  158A         
  4307                           	line	772
  4308                           ;PR23.c: 772: break;
  4309  0D1D  2D39               	goto	l398
  4310                           	line	774
  4311                           ;PR23.c: 774: default:
  4312                           	
  4313  0D1E                     l408:	
  4314                           	line	775
  4315                           	
  4316  0D1E                     l3600:	
  4317                           ;PR23.c: 775: lcd_string("ADC ");
  4318  0D1E  309A               	movlw	low(STR_17|8000h)
  4319  0D1F  1283               	bcf	status, 5	;RP0=0, select bank0
  4320  0D20  1303               	bcf	status, 6	;RP1=0, select bank0
  4321  0D21  00A9               	movwf	(?_lcd_string)
  4322  0D22  3083               	movlw	high(STR_17|8000h)
  4323  0D23  00AA               	movwf	((?_lcd_string))+1
  4324  0D24  160A  118A  25EE   	fcall	_lcd_string
              120A  158A         
  4325                           	line	776
  4326                           	
  4327  0D29                     l3602:	
  4328                           ;PR23.c: 776: ez1_mode = 1;
  4329  0D29  1283               	bcf	status, 5	;RP0=0, select bank0
  4330  0D2A  1303               	bcf	status, 6	;RP1=0, select bank0
  4331  0D2B  01D9               	clrf	(ultrasonic@ez1_mode)
  4332  0D2C  0AD9               	incf	(ultrasonic@ez1_mode),f
  4333                           	line	777
  4334                           ;PR23.c: 777: }
  4335  0D2D  2D39               	goto	l398
  4336                           	line	764
  4337                           	
  4338  0D2E                     l404:	
  4339                           	
  4340  0D2E                     l3604:	
  4341  0D2E  1283               	bcf	status, 5	;RP0=0, select bank0
  4342  0D2F  1303               	bcf	status, 6	;RP1=0, select bank0
  4343  0D30  0859               	movf	(ultrasonic@ez1_mode),w
  4344                           	; Switch size 1, requested type "space"
  4345                           ; Number of cases is 2, Range of values is 2 to 3
  4346                           ; switch strategies available:
  4347                           ; Name         Instructions Cycles
  4348                           ; simple_byte            7     4 (average)
  4349                           ; direct_byte           17    11 (fixed)
  4350                           ; jumptable            263     9 (fixed)
  4351                           ;	Chosen strategy is simple_byte
  4352                           
  4353                           	opt asmopt_off
  4354  0D31  3A02               	xorlw	2^0	; case 2
  4355  0D32  1903               	skipnz
  4356  0D33  2D06               	goto	l3596
  4357  0D34  3A01               	xorlw	3^2	; case 3
  4358  0D35  1903               	skipnz
  4359  0D36  2D12               	goto	l3598
  4360  0D37  2D1E               	goto	l3600
  4361                           	opt asmopt_on
  4362                           
  4363                           	line	777
  4364                           	
  4365  0D38                     l406:	
  4366  0D38  2D39               	goto	l398
  4367                           	line	778
  4368                           	
  4369  0D39                     l400:	
  4370                           	line	779
  4371                           	
  4372  0D39                     l398:	
  4373                           	line	756
  4374  0D39  1283               	bcf	status, 5	;RP0=0, select bank0
  4375  0D3A  1303               	bcf	status, 6	;RP1=0, select bank0
  4376  0D3B  1889               	btfsc	(73/8),(73)&7	;volatile
  4377  0D3C  2D3E               	goto	u3681
  4378  0D3D  2D3F               	goto	u3680
  4379  0D3E                     u3681:
  4380  0D3E  2CE8               	goto	l399
  4381  0D3F                     u3680:
  4382  0D3F  2D41               	goto	l410
  4383                           	
  4384  0D40                     l409:	
  4385                           	line	780
  4386                           ;PR23.c: 778: }
  4387                           ;PR23.c: 779: }
  4388                           ;PR23.c: 780: while(RE1 == 0);
  4389  0D40  2D41               	goto	l410
  4390                           	
  4391  0D41                     l411:	
  4392                           	
  4393  0D41                     l410:	
  4394  0D41  1C89               	btfss	(73/8),(73)&7	;volatile
  4395  0D42  2D44               	goto	u3691
  4396  0D43  2D45               	goto	u3690
  4397  0D44                     u3691:
  4398  0D44  2D41               	goto	l410
  4399  0D45                     u3690:
  4400  0D45  2D46               	goto	l3606
  4401                           	
  4402  0D46                     l412:	
  4403                           	line	782
  4404                           	
  4405  0D46                     l3606:	
  4406                           ;PR23.c: 782: lcd_clr_line(1);
  4407  0D46  3001               	movlw	(01h)
  4408  0D47  160A  118A  2691   	fcall	_lcd_clr_line
              120A  158A         
  4409                           	line	783
  4410                           	
  4411  0D4C                     l3608:	
  4412                           ;PR23.c: 783: lcd_2ndline();
  4413  0D4C  120A  118A  27F9   	fcall	_lcd_2ndline
              120A  158A         
  4414                           	line	784
  4415                           	
  4416  0D51                     l3610:	
  4417                           ;PR23.c: 784: lcd_string("Range:");
  4418  0D51  3093               	movlw	low(STR_18|8000h)
  4419  0D52  1283               	bcf	status, 5	;RP0=0, select bank0
  4420  0D53  1303               	bcf	status, 6	;RP1=0, select bank0
  4421  0D54  00A9               	movwf	(?_lcd_string)
  4422  0D55  3083               	movlw	high(STR_18|8000h)
  4423  0D56  00AA               	movwf	((?_lcd_string))+1
  4424  0D57  160A  118A  25EE   	fcall	_lcd_string
              120A  158A         
  4425                           	line	785
  4426                           	
  4427  0D5C                     l3612:	
  4428                           ;PR23.c: 785: lcd_goto(0x4B);
  4429  0D5C  304B               	movlw	(04Bh)
  4430  0D5D  120A  158A  2000   	fcall	_lcd_goto
              120A  158A         
  4431                           	line	786
  4432                           	
  4433  0D62                     l3614:	
  4434                           ;PR23.c: 786: lcd_string("inch");
  4435  0D62  30A9               	movlw	low(STR_19|8000h)
  4436  0D63  1283               	bcf	status, 5	;RP0=0, select bank0
  4437  0D64  1303               	bcf	status, 6	;RP1=0, select bank0
  4438  0D65  00A9               	movwf	(?_lcd_string)
  4439  0D66  3083               	movlw	high(STR_19|8000h)
  4440  0D67  00AA               	movwf	((?_lcd_string))+1
  4441  0D68  160A  118A  25EE   	fcall	_lcd_string
              120A  158A         
  4442                           	line	787
  4443                           	
  4444  0D6D                     l3616:	
  4445                           ;PR23.c: 787: if(ez1_mode == 2)
  4446  0D6D  1283               	bcf	status, 5	;RP0=0, select bank0
  4447  0D6E  1303               	bcf	status, 6	;RP1=0, select bank0
  4448  0D6F  0859               	movf	(ultrasonic@ez1_mode),w
  4449  0D70  3A02               	xorlw	02h
  4450  0D71  1D03               	skipz
  4451  0D72  2D74               	goto	u3701
  4452  0D73  2D75               	goto	u3700
  4453  0D74                     u3701:
  4454  0D74  2D85               	goto	l3624
  4455  0D75                     u3700:
  4456                           	line	789
  4457                           	
  4458  0D75                     l3618:	
  4459                           ;PR23.c: 788: {
  4460                           ;PR23.c: 789: timer1_init();
  4461  0D75  160A  118A  2460   	fcall	_timer1_init
              120A  158A         
  4462                           	line	790
  4463                           	
  4464  0D7A                     l3620:	
  4465                           ;PR23.c: 790: if(RB4);
  4466                           	
  4467  0D7A                     l414:	
  4468                           	line	791
  4469                           ;PR23.c: 791: TMR1ON = 1;
  4470  0D7A  1283               	bcf	status, 5	;RP0=0, select bank0
  4471  0D7B  1303               	bcf	status, 6	;RP1=0, select bank0
  4472  0D7C  1410               	bsf	(128/8),(128)&7	;volatile
  4473                           	line	792
  4474                           ;PR23.c: 792: RBIF = 0;
  4475  0D7D  100B               	bcf	(88/8),(88)&7	;volatile
  4476                           	line	793
  4477                           ;PR23.c: 793: RBIE = 1;
  4478  0D7E  158B               	bsf	(91/8),(91)&7	;volatile
  4479                           	line	794
  4480                           	
  4481  0D7F                     l3622:	
  4482                           ;PR23.c: 794: enable_global_int();
  4483  0D7F  120A  118A  20FC   	fcall	_enable_global_int
              120A  158A         
  4484                           	line	795
  4485                           ;PR23.c: 795: }
  4486  0D84  2DB6               	goto	l3636
  4487                           	line	796
  4488                           	
  4489  0D85                     l413:	
  4490                           	
  4491  0D85                     l3624:	
  4492                           ;PR23.c: 796: else if(ez1_mode == 3)
  4493  0D85  1283               	bcf	status, 5	;RP0=0, select bank0
  4494  0D86  1303               	bcf	status, 6	;RP1=0, select bank0
  4495  0D87  0859               	movf	(ultrasonic@ez1_mode),w
  4496  0D88  3A03               	xorlw	03h
  4497  0D89  1D03               	skipz
  4498  0D8A  2D8C               	goto	u3711
  4499  0D8B  2D8D               	goto	u3710
  4500  0D8C                     u3711:
  4501  0D8C  2DAA               	goto	l416
  4502  0D8D                     u3710:
  4503                           	line	798
  4504                           	
  4505  0D8D                     l3626:	
  4506                           ;PR23.c: 797: {
  4507                           ;PR23.c: 798: uart_init();
  4508  0D8D  120A  118A  20E2   	fcall	_uart_init
              120A  158A         
  4509                           	line	799
  4510                           	
  4511  0D92                     l3628:	
  4512                           ;PR23.c: 799: RCIE = 1;
  4513  0D92  1683               	bsf	status, 5	;RP0=1, select bank1
  4514  0D93  1303               	bcf	status, 6	;RP1=0, select bank1
  4515  0D94  168C               	bsf	(1125/8)^080h,(1125)&7	;volatile
  4516                           	line	800
  4517                           	
  4518  0D95                     l3630:	
  4519                           ;PR23.c: 800: enable_global_int();
  4520  0D95  120A  118A  20FC   	fcall	_enable_global_int
              120A  158A         
  4521                           	line	801
  4522                           	
  4523  0D9A                     l3632:	
  4524                           ;PR23.c: 801: delay_ms(60);
  4525  0D9A  3000               	movlw	0
  4526  0D9B  1283               	bcf	status, 5	;RP0=0, select bank0
  4527  0D9C  1303               	bcf	status, 6	;RP1=0, select bank0
  4528  0D9D  00A3               	movwf	(?_delay_ms+3)
  4529  0D9E  3000               	movlw	0
  4530  0D9F  00A2               	movwf	(?_delay_ms+2)
  4531  0DA0  3000               	movlw	0
  4532  0DA1  00A1               	movwf	(?_delay_ms+1)
  4533  0DA2  303C               	movlw	03Ch
  4534  0DA3  00A0               	movwf	(?_delay_ms)
  4535                           
  4536  0DA4  160A  118A  26CD   	fcall	_delay_ms
              120A  158A         
  4537                           	line	802
  4538                           ;PR23.c: 802: }
  4539  0DA9  2DB6               	goto	l3636
  4540                           	line	803
  4541                           	
  4542  0DAA                     l416:	
  4543                           	line	805
  4544                           ;PR23.c: 803: else
  4545                           ;PR23.c: 804: {
  4546                           ;PR23.c: 805: RBIE = 0;
  4547  0DAA  118B               	bcf	(91/8),(91)&7	;volatile
  4548                           	line	806
  4549                           ;PR23.c: 806: RCIE = 0;
  4550  0DAB  1683               	bsf	status, 5	;RP0=1, select bank1
  4551  0DAC  1303               	bcf	status, 6	;RP1=0, select bank1
  4552  0DAD  128C               	bcf	(1125/8)^080h,(1125)&7	;volatile
  4553                           	line	807
  4554                           	
  4555  0DAE                     l3634:	
  4556                           ;PR23.c: 807: disable_global_int();
  4557  0DAE  160A  118A  2434   	fcall	_disable_global_int
              120A  158A         
  4558  0DB3  2DB6               	goto	l3636
  4559                           	line	808
  4560                           	
  4561  0DB4                     l417:	
  4562  0DB4  2DB6               	goto	l3636
  4563                           	
  4564  0DB5                     l415:	
  4565  0DB5  2DB6               	goto	l3636
  4566                           	line	810
  4567                           ;PR23.c: 808: }
  4568                           ;PR23.c: 810: while(1)
  4569                           	
  4570  0DB6                     l418:	
  4571                           	line	812
  4572                           	
  4573  0DB6                     l3636:	
  4574                           ;PR23.c: 811: {
  4575                           ;PR23.c: 812: distance = us_value(ez1_mode);
  4576  0DB6  1283               	bcf	status, 5	;RP0=0, select bank0
  4577  0DB7  1303               	bcf	status, 6	;RP1=0, select bank0
  4578  0DB8  0859               	movf	(ultrasonic@ez1_mode),w
  4579  0DB9  120A  118A  2015   	fcall	_us_value
              120A  158A         
  4580  0DBE  1283               	bcf	status, 5	;RP0=0, select bank0
  4581  0DBF  1303               	bcf	status, 6	;RP1=0, select bank0
  4582  0DC0  084E               	movf	(1+(?_us_value)),w
  4583  0DC1  01DB               	clrf	(ultrasonic@distance+1)
  4584  0DC2  07DB               	addwf	(ultrasonic@distance+1)
  4585  0DC3  084D               	movf	(0+(?_us_value)),w
  4586  0DC4  01DA               	clrf	(ultrasonic@distance)
  4587  0DC5  07DA               	addwf	(ultrasonic@distance)
  4588                           
  4589                           	line	813
  4590                           	
  4591  0DC6                     l3638:	
  4592                           ;PR23.c: 813: lcd_goto(0x47);
  4593  0DC6  3047               	movlw	(047h)
  4594  0DC7  120A  158A  2000   	fcall	_lcd_goto
              120A  158A         
  4595                           	line	814
  4596                           	
  4597  0DCC                     l3640:	
  4598                           ;PR23.c: 814: if(distance < 5)
  4599  0DCC  3000               	movlw	high(05h)
  4600  0DCD  1283               	bcf	status, 5	;RP0=0, select bank0
  4601  0DCE  1303               	bcf	status, 6	;RP1=0, select bank0
  4602  0DCF  025B               	subwf	(ultrasonic@distance+1),w
  4603  0DD0  3005               	movlw	low(05h)
  4604  0DD1  1903               	skipnz
  4605  0DD2  025A               	subwf	(ultrasonic@distance),w
  4606  0DD3  1803               	skipnc
  4607  0DD4  2DD6               	goto	u3721
  4608  0DD5  2DD7               	goto	u3720
  4609  0DD6                     u3721:
  4610  0DD6  2DEB               	goto	l3652
  4611  0DD7                     u3720:
  4612                           	line	816
  4613                           	
  4614  0DD7                     l3642:	
  4615                           ;PR23.c: 815: {
  4616                           ;PR23.c: 816: lcd_string("XXX");
  4617  0DD7  30B2               	movlw	low(STR_20|8000h)
  4618  0DD8  00A9               	movwf	(?_lcd_string)
  4619  0DD9  3083               	movlw	high(STR_20|8000h)
  4620  0DDA  00AA               	movwf	((?_lcd_string))+1
  4621  0DDB  160A  118A  25EE   	fcall	_lcd_string
              120A  158A         
  4622                           	line	817
  4623                           	
  4624  0DE0                     l3644:	
  4625                           ;PR23.c: 817: stop();
  4626  0DE0  160A  118A  2459   	fcall	_stop
              120A  158A         
  4627                           	line	818
  4628                           	
  4629  0DE5                     l3646:	
  4630                           ;PR23.c: 818: CCPR1L = 0;
  4631  0DE5  1283               	bcf	status, 5	;RP0=0, select bank0
  4632  0DE6  1303               	bcf	status, 6	;RP1=0, select bank0
  4633  0DE7  0195               	clrf	(21)	;volatile
  4634                           	line	819
  4635                           	
  4636  0DE8                     l3648:	
  4637                           ;PR23.c: 819: CCPR2L = 0;
  4638  0DE8  019B               	clrf	(27)	;volatile
  4639                           	line	820
  4640                           ;PR23.c: 820: continue;
  4641  0DE9  2DB6               	goto	l3636
  4642                           	line	821
  4643                           	
  4644  0DEA                     l3650:	
  4645                           ;PR23.c: 821: }
  4646  0DEA  2DF8               	goto	l3654
  4647                           	line	822
  4648                           	
  4649  0DEB                     l419:	
  4650                           	
  4651  0DEB                     l3652:	
  4652                           ;PR23.c: 822: else lcd_dis_num( 3, distance);
  4653  0DEB  085B               	movf	(ultrasonic@distance+1),w
  4654  0DEC  01AA               	clrf	(?_lcd_dis_num+1)
  4655  0DED  07AA               	addwf	(?_lcd_dis_num+1)
  4656  0DEE  085A               	movf	(ultrasonic@distance),w
  4657  0DEF  01A9               	clrf	(?_lcd_dis_num)
  4658  0DF0  07A9               	addwf	(?_lcd_dis_num)
  4659                           
  4660  0DF1  3003               	movlw	(03h)
  4661  0DF2  120A  158A  2109   	fcall	_lcd_dis_num
              120A  158A         
  4662  0DF7  2DF8               	goto	l3654
  4663                           	
  4664  0DF8                     l421:	
  4665                           	line	825
  4666                           	
  4667  0DF8                     l3654:	
  4668                           ;PR23.c: 825: if (distance > 20)
  4669  0DF8  3000               	movlw	high(015h)
  4670  0DF9  1283               	bcf	status, 5	;RP0=0, select bank0
  4671  0DFA  1303               	bcf	status, 6	;RP1=0, select bank0
  4672  0DFB  025B               	subwf	(ultrasonic@distance+1),w
  4673  0DFC  3015               	movlw	low(015h)
  4674  0DFD  1903               	skipnz
  4675  0DFE  025A               	subwf	(ultrasonic@distance),w
  4676  0DFF  1C03               	skipc
  4677  0E00  2E02               	goto	u3731
  4678  0E01  2E03               	goto	u3730
  4679  0E02                     u3731:
  4680  0E02  2E10               	goto	l3664
  4681  0E03                     u3730:
  4682                           	line	827
  4683                           	
  4684  0E03                     l3656:	
  4685                           ;PR23.c: 826: {
  4686                           ;PR23.c: 827: forward();
  4687  0E03  160A  118A  2452   	fcall	_forward
              120A  158A         
  4688                           	line	828
  4689                           	
  4690  0E08                     l3658:	
  4691                           ;PR23.c: 828: CCPR1L = 255;
  4692  0E08  30FF               	movlw	(0FFh)
  4693  0E09  1283               	bcf	status, 5	;RP0=0, select bank0
  4694  0E0A  1303               	bcf	status, 6	;RP1=0, select bank0
  4695  0E0B  0095               	movwf	(21)	;volatile
  4696                           	line	829
  4697                           	
  4698  0E0C                     l3660:	
  4699                           ;PR23.c: 829: CCPR2L = 255;
  4700  0E0C  30FF               	movlw	(0FFh)
  4701  0E0D  009B               	movwf	(27)	;volatile
  4702                           	line	830
  4703                           	
  4704  0E0E                     l3662:	
  4705                           ;PR23.c: 830: RE2 = 0;
  4706  0E0E  1109               	bcf	(74/8),(74)&7	;volatile
  4707                           	line	831
  4708                           ;PR23.c: 831: }
  4709  0E0F  2DB6               	goto	l3636
  4710                           	line	832
  4711                           	
  4712  0E10                     l422:	
  4713                           	
  4714  0E10                     l3664:	
  4715                           ;PR23.c: 832: else if (distance > 12)
  4716  0E10  3000               	movlw	high(0Dh)
  4717  0E11  025B               	subwf	(ultrasonic@distance+1),w
  4718  0E12  300D               	movlw	low(0Dh)
  4719  0E13  1903               	skipnz
  4720  0E14  025A               	subwf	(ultrasonic@distance),w
  4721  0E15  1C03               	skipc
  4722  0E16  2E18               	goto	u3741
  4723  0E17  2E19               	goto	u3740
  4724  0E18                     u3741:
  4725  0E18  2E26               	goto	l3674
  4726  0E19                     u3740:
  4727                           	line	834
  4728                           	
  4729  0E19                     l3666:	
  4730                           ;PR23.c: 833: {
  4731                           ;PR23.c: 834: forward();
  4732  0E19  160A  118A  2452   	fcall	_forward
              120A  158A         
  4733                           	line	835
  4734                           	
  4735  0E1E                     l3668:	
  4736                           ;PR23.c: 835: CCPR1L = 180;
  4737  0E1E  30B4               	movlw	(0B4h)
  4738  0E1F  1283               	bcf	status, 5	;RP0=0, select bank0
  4739  0E20  1303               	bcf	status, 6	;RP1=0, select bank0
  4740  0E21  0095               	movwf	(21)	;volatile
  4741                           	line	836
  4742                           	
  4743  0E22                     l3670:	
  4744                           ;PR23.c: 836: CCPR2L = 180;
  4745  0E22  30B4               	movlw	(0B4h)
  4746  0E23  009B               	movwf	(27)	;volatile
  4747                           	line	837
  4748                           	
  4749  0E24                     l3672:	
  4750                           ;PR23.c: 837: RE2 = 0;
  4751  0E24  1109               	bcf	(74/8),(74)&7	;volatile
  4752                           	line	838
  4753                           ;PR23.c: 838: }
  4754  0E25  2DB6               	goto	l3636
  4755                           	line	839
  4756                           	
  4757  0E26                     l424:	
  4758                           	
  4759  0E26                     l3674:	
  4760                           ;PR23.c: 839: else if( distance > 8)
  4761  0E26  3000               	movlw	high(09h)
  4762  0E27  025B               	subwf	(ultrasonic@distance+1),w
  4763  0E28  3009               	movlw	low(09h)
  4764  0E29  1903               	skipnz
  4765  0E2A  025A               	subwf	(ultrasonic@distance),w
  4766  0E2B  1C03               	skipc
  4767  0E2C  2E2E               	goto	u3751
  4768  0E2D  2E2F               	goto	u3750
  4769  0E2E                     u3751:
  4770  0E2E  2E3A               	goto	l3684
  4771  0E2F                     u3750:
  4772                           	line	841
  4773                           	
  4774  0E2F                     l3676:	
  4775                           ;PR23.c: 840: {
  4776                           ;PR23.c: 841: stop();
  4777  0E2F  160A  118A  2459   	fcall	_stop
              120A  158A         
  4778                           	line	842
  4779                           	
  4780  0E34                     l3678:	
  4781                           ;PR23.c: 842: CCPR1L = 0;
  4782  0E34  1283               	bcf	status, 5	;RP0=0, select bank0
  4783  0E35  1303               	bcf	status, 6	;RP1=0, select bank0
  4784  0E36  0195               	clrf	(21)	;volatile
  4785                           	line	843
  4786                           	
  4787  0E37                     l3680:	
  4788                           ;PR23.c: 843: CCPR2L = 0;
  4789  0E37  019B               	clrf	(27)	;volatile
  4790                           	line	844
  4791                           	
  4792  0E38                     l3682:	
  4793                           ;PR23.c: 844: RE2 = 0;
  4794  0E38  1109               	bcf	(74/8),(74)&7	;volatile
  4795                           	line	845
  4796                           ;PR23.c: 845: }
  4797  0E39  2DB6               	goto	l3636
  4798                           	line	846
  4799                           	
  4800  0E3A                     l426:	
  4801                           	line	848
  4802                           	
  4803  0E3A                     l3684:	
  4804                           ;PR23.c: 846: else
  4805                           ;PR23.c: 847: {
  4806                           ;PR23.c: 848: backward();
  4807  0E3A  160A  118A  244B   	fcall	_backward
              120A  158A         
  4808                           	line	849
  4809                           	
  4810  0E3F                     l3686:	
  4811                           ;PR23.c: 849: CCPR1L = 200;
  4812  0E3F  30C8               	movlw	(0C8h)
  4813  0E40  1283               	bcf	status, 5	;RP0=0, select bank0
  4814  0E41  1303               	bcf	status, 6	;RP1=0, select bank0
  4815  0E42  0095               	movwf	(21)	;volatile
  4816                           	line	850
  4817                           	
  4818  0E43                     l3688:	
  4819                           ;PR23.c: 850: CCPR2L = 200;
  4820  0E43  30C8               	movlw	(0C8h)
  4821  0E44  009B               	movwf	(27)	;volatile
  4822                           	line	851
  4823                           	
  4824  0E45                     l3690:	
  4825                           ;PR23.c: 851: RE2 = 1;
  4826  0E45  1509               	bsf	(74/8),(74)&7	;volatile
  4827  0E46  2DB6               	goto	l3636
  4828                           	line	852
  4829                           	
  4830  0E47                     l427:	
  4831  0E47  2DB6               	goto	l3636
  4832                           	
  4833  0E48                     l425:	
  4834  0E48  2DB6               	goto	l3636
  4835                           	
  4836  0E49                     l423:	
  4837  0E49  2DB6               	goto	l3636
  4838                           	line	853
  4839                           	
  4840  0E4A                     l420:	
  4841                           	line	810
  4842  0E4A  2DB6               	goto	l3636
  4843                           	
  4844  0E4B                     l428:	
  4845                           	line	854
  4846                           	
  4847  0E4B                     l429:	
  4848  0E4B  0008               	return
  4849                           	opt stack 0
  4850                           GLOBAL	__end_of_ultrasonic
  4851  0E4C                     	__end_of_ultrasonic:
  4852                           	signat	_ultrasonic,88
  4853                           	global	_analog_sen
  4854                           
  4855 ;; *************** function _analog_sen *****************
  4856 ;; Defined at:
  4857 ;;		line 861 in file "PR23.c"
  4858 ;; Parameters:    Size  Location     Type
  4859 ;;		None
  4860 ;; Auto vars:     Size  Location     Type
  4861 ;;  voltage         4   50[BANK0 ] unsigned long 
  4862 ;;  distance        1   49[BANK0 ] unsigned char 
  4863 ;; Return value:  Size  Location     Type
  4864 ;;		None               void
  4865 ;; Registers used:
  4866 ;;		wreg, fsr0l, fsr0h, status,2, status,0, btemp+1, pclath, cstack
  4867 ;; Tracked objects:
  4868 ;;		On entry : 0/0
  4869 ;;		On exit  : 0/0
  4870 ;;		Unchanged: 0/0
  4871 ;; Data sizes:     COMMON   BANK0   BANK1   BANK3   BANK2
  4872 ;;      Params:         0       0       0       0       0
  4873 ;;      Locals:         0       5       0       0       0
  4874 ;;      Temps:          0       4       0       0       0
  4875 ;;      Totals:         0       9       0       0       0
  4876 ;;Total ram usage:        9 bytes
  4877 ;; Hardware stack levels used:    1
  4878 ;; Hardware stack levels required when called:    5
  4879 ;; This function calls:
  4880 ;;		_lcd_clr
  4881 ;;		_lcd_string
  4882 ;;		_lcd_2ndline
  4883 ;;		_lcd_goto
  4884 ;;		_read_adc
  4885 ;;		___lmul
  4886 ;;		___lldiv
  4887 ;;		_lcd_dis_num
  4888 ;;		_lcd_char
  4889 ;;		_backward
  4890 ;;		_stop
  4891 ;;		_forward
  4892 ;; This function is called by:
  4893 ;;		_main
  4894 ;; This function uses a non-reentrant model
  4895 ;;
  4896                           psect	text1387,local,class=CODE,delta=2,merge=1
  4897                           global __ptext1387
  4898  0A00                     __ptext1387:	;psect for function _analog_sen
  4899                           psect	text1387
  4900                           	file	"PR23.c"
  4901                           	line	861
  4902                           	global	__size_of_analog_sen
  4903  0154                     	__size_of_analog_sen	equ	__end_of_analog_sen-_analog_sen
  4904                           	
  4905  0A00                     _analog_sen:	
  4906                           	opt	stack 2
  4907                           ; Regs used in _analog_sen: [wreg-fsr0h+status,2+status,0+btemp+1+pclath+cstack]
  4908                           	line	862
  4909                           	
  4910  0A00                     l3692:	
  4911                           ;PR23.c: 862: unsigned long voltage = 0;
  4912  0A00  3000               	movlw	0
  4913  0A01  1283               	bcf	status, 5	;RP0=0, select bank0
  4914  0A02  1303               	bcf	status, 6	;RP1=0, select bank0
  4915  0A03  00D5               	movwf	(analog_sen@voltage+3)
  4916  0A04  3000               	movlw	0
  4917  0A05  00D4               	movwf	(analog_sen@voltage+2)
  4918  0A06  3000               	movlw	0
  4919  0A07  00D3               	movwf	(analog_sen@voltage+1)
  4920  0A08  3000               	movlw	0
  4921  0A09  00D2               	movwf	(analog_sen@voltage)
  4922                           
  4923                           	line	863
  4924                           	
  4925  0A0A                     l3694:	
  4926                           ;PR23.c: 863: unsigned char distance = 0;
  4927  0A0A  01D1               	clrf	(analog_sen@distance)
  4928                           	line	864
  4929                           	
  4930  0A0B                     l3696:	
  4931                           ;PR23.c: 864: lcd_clr();
  4932  0A0B  160A  118A  24C6   	fcall	_lcd_clr
              120A  158A         
  4933                           	line	865
  4934                           	
  4935  0A10                     l3698:	
  4936                           ;PR23.c: 865: lcd_string("Sharp GP2Y0A21");
  4937  0A10  3094               	movlw	low(STR_21|8000h)
  4938  0A11  1283               	bcf	status, 5	;RP0=0, select bank0
  4939  0A12  1303               	bcf	status, 6	;RP1=0, select bank0
  4940  0A13  00A9               	movwf	(?_lcd_string)
  4941  0A14  3082               	movlw	high(STR_21|8000h)
  4942  0A15  00AA               	movwf	((?_lcd_string))+1
  4943  0A16  160A  118A  25EE   	fcall	_lcd_string
              120A  158A         
  4944                           	line	866
  4945                           	
  4946  0A1B                     l3700:	
  4947                           ;PR23.c: 866: lcd_2ndline();
  4948  0A1B  120A  118A  27F9   	fcall	_lcd_2ndline
              120A  158A         
  4949                           	line	867
  4950                           	
  4951  0A20                     l3702:	
  4952                           ;PR23.c: 867: lcd_string("Range:");
  4953  0A20  3093               	movlw	low(STR_22|8000h)
  4954  0A21  1283               	bcf	status, 5	;RP0=0, select bank0
  4955  0A22  1303               	bcf	status, 6	;RP1=0, select bank0
  4956  0A23  00A9               	movwf	(?_lcd_string)
  4957  0A24  3083               	movlw	high(STR_22|8000h)
  4958  0A25  00AA               	movwf	((?_lcd_string))+1
  4959  0A26  160A  118A  25EE   	fcall	_lcd_string
              120A  158A         
  4960                           	line	868
  4961                           	
  4962  0A2B                     l3704:	
  4963                           ;PR23.c: 868: lcd_goto(0x4A);
  4964  0A2B  304A               	movlw	(04Ah)
  4965  0A2C  120A  158A  2000   	fcall	_lcd_goto
              120A  158A         
  4966                           	line	869
  4967                           	
  4968  0A31                     l3706:	
  4969                           ;PR23.c: 869: lcd_string("cm");
  4970  0A31  30BA               	movlw	low(STR_23|8000h)
  4971  0A32  1283               	bcf	status, 5	;RP0=0, select bank0
  4972  0A33  1303               	bcf	status, 6	;RP1=0, select bank0
  4973  0A34  00A9               	movwf	(?_lcd_string)
  4974  0A35  3083               	movlw	high(STR_23|8000h)
  4975  0A36  00AA               	movwf	((?_lcd_string))+1
  4976  0A37  160A  118A  25EE   	fcall	_lcd_string
              120A  158A         
  4977  0A3C  2A3D               	goto	l3708
  4978                           	line	871
  4979                           ;PR23.c: 871: while(1)
  4980                           	
  4981  0A3D                     l432:	
  4982                           	line	873
  4983                           	
  4984  0A3D                     l3708:	
  4985                           ;PR23.c: 872: {
  4986                           ;PR23.c: 873: lcd_goto(0x47);
  4987  0A3D  3047               	movlw	(047h)
  4988  0A3E  120A  158A  2000   	fcall	_lcd_goto
              120A  158A         
  4989                           	line	874
  4990                           	
  4991  0A43                     l3710:	
  4992                           ;PR23.c: 874: voltage = read_adc(1);
  4993  0A43  3001               	movlw	(01h)
  4994  0A44  120A  158A  205A   	fcall	_read_adc
              120A  158A         
  4995  0A49  1283               	bcf	status, 5	;RP0=0, select bank0
  4996  0A4A  1303               	bcf	status, 6	;RP1=0, select bank0
  4997  0A4B  083B               	movf	(0+(?_read_adc)),w
  4998  0A4C  00D2               	movwf	(analog_sen@voltage)
  4999  0A4D  083C               	movf	(1+(?_read_adc)),w
  5000  0A4E  00D3               	movwf	((analog_sen@voltage))+1
  5001  0A4F  01D4               	clrf	2+((analog_sen@voltage))
  5002  0A50  01D5               	clrf	3+((analog_sen@voltage))
  5003                           	line	889
  5004                           	
  5005  0A51                     l3712:	
  5006                           ;PR23.c: 889: voltage = (voltage * 48828)/10000;
  5007  0A51  3000               	movlw	0
  5008  0A52  00B0               	movwf	(?___lldiv+3)
  5009  0A53  3000               	movlw	0
  5010  0A54  00AF               	movwf	(?___lldiv+2)
  5011  0A55  3027               	movlw	027h
  5012  0A56  00AE               	movwf	(?___lldiv+1)
  5013  0A57  3010               	movlw	010h
  5014  0A58  00AD               	movwf	(?___lldiv)
  5015                           
  5016  0A59  0855               	movf	(analog_sen@voltage+3),w
  5017  0A5A  00A3               	movwf	(?___lmul+3)
  5018  0A5B  0854               	movf	(analog_sen@voltage+2),w
  5019  0A5C  00A2               	movwf	(?___lmul+2)
  5020  0A5D  0853               	movf	(analog_sen@voltage+1),w
  5021  0A5E  00A1               	movwf	(?___lmul+1)
  5022  0A5F  0852               	movf	(analog_sen@voltage),w
  5023  0A60  00A0               	movwf	(?___lmul)
  5024                           
  5025  0A61  3000               	movlw	0
  5026  0A62  00A7               	movwf	3+(?___lmul)+04h
  5027  0A63  3000               	movlw	0
  5028  0A64  00A6               	movwf	2+(?___lmul)+04h
  5029  0A65  30BE               	movlw	0BEh
  5030  0A66  00A5               	movwf	1+(?___lmul)+04h
  5031  0A67  30BC               	movlw	0BCh
  5032  0A68  00A4               	movwf	0+(?___lmul)+04h
  5033                           
  5034  0A69  160A  118A  274F   	fcall	___lmul
              120A  158A         
  5035  0A6E  1283               	bcf	status, 5	;RP0=0, select bank0
  5036  0A6F  1303               	bcf	status, 6	;RP1=0, select bank0
  5037  0A70  0823               	movf	(3+(?___lmul)),w
  5038  0A71  00B4               	movwf	3+(?___lldiv)+04h
  5039  0A72  0822               	movf	(2+(?___lmul)),w
  5040  0A73  00B3               	movwf	2+(?___lldiv)+04h
  5041  0A74  0821               	movf	(1+(?___lmul)),w
  5042  0A75  00B2               	movwf	1+(?___lldiv)+04h
  5043  0A76  0820               	movf	(0+(?___lmul)),w
  5044  0A77  00B1               	movwf	0+(?___lldiv)+04h
  5045                           
  5046  0A78  120A  118A  278A   	fcall	___lldiv
              120A  158A         
  5047  0A7D  1283               	bcf	status, 5	;RP0=0, select bank0
  5048  0A7E  1303               	bcf	status, 6	;RP1=0, select bank0
  5049  0A7F  0830               	movf	(3+(?___lldiv)),w
  5050  0A80  00D5               	movwf	(analog_sen@voltage+3)
  5051  0A81  082F               	movf	(2+(?___lldiv)),w
  5052  0A82  00D4               	movwf	(analog_sen@voltage+2)
  5053  0A83  082E               	movf	(1+(?___lldiv)),w
  5054  0A84  00D3               	movwf	(analog_sen@voltage+1)
  5055  0A85  082D               	movf	(0+(?___lldiv)),w
  5056  0A86  00D2               	movwf	(analog_sen@voltage)
  5057                           
  5058                           	line	890
  5059                           	
  5060  0A87                     l3714:	
  5061                           ;PR23.c: 890: if((voltage > 400) && (voltage < 2800))
  5062  0A87  3000               	movlw	0
  5063  0A88  0255               	subwf	(analog_sen@voltage+3),w
  5064  0A89  1D03               	skipz
  5065  0A8A  2A95               	goto	u3765
  5066  0A8B  3000               	movlw	0
  5067  0A8C  0254               	subwf	(analog_sen@voltage+2),w
  5068  0A8D  1D03               	skipz
  5069  0A8E  2A95               	goto	u3765
  5070  0A8F  3001               	movlw	01h
  5071  0A90  0253               	subwf	(analog_sen@voltage+1),w
  5072  0A91  1D03               	skipz
  5073  0A92  2A95               	goto	u3765
  5074  0A93  3091               	movlw	091h
  5075  0A94  0252               	subwf	(analog_sen@voltage),w
  5076  0A95                     u3765:
  5077  0A95  1C03               	skipc
  5078  0A96  2A98               	goto	u3761
  5079  0A97  2A99               	goto	u3760
  5080  0A98                     u3761:
  5081  0A98  2B42               	goto	l3760
  5082  0A99                     u3760:
  5083                           	
  5084  0A99                     l3716:	
  5085  0A99  3000               	movlw	0
  5086  0A9A  0255               	subwf	(analog_sen@voltage+3),w
  5087  0A9B  1D03               	skipz
  5088  0A9C  2AA7               	goto	u3775
  5089  0A9D  3000               	movlw	0
  5090  0A9E  0254               	subwf	(analog_sen@voltage+2),w
  5091  0A9F  1D03               	skipz
  5092  0AA0  2AA7               	goto	u3775
  5093  0AA1  300A               	movlw	0Ah
  5094  0AA2  0253               	subwf	(analog_sen@voltage+1),w
  5095  0AA3  1D03               	skipz
  5096  0AA4  2AA7               	goto	u3775
  5097  0AA5  30F0               	movlw	0F0h
  5098  0AA6  0252               	subwf	(analog_sen@voltage),w
  5099  0AA7                     u3775:
  5100  0AA7  1803               	skipnc
  5101  0AA8  2AAA               	goto	u3771
  5102  0AA9  2AAB               	goto	u3770
  5103  0AAA                     u3771:
  5104  0AAA  2B42               	goto	l3760
  5105  0AAB                     u3770:
  5106                           	line	892
  5107                           	
  5108  0AAB                     l3718:	
  5109                           ;PR23.c: 891: {
  5110                           ;PR23.c: 892: voltage = voltage - 190;
  5111  0AAB  3042               	movlw	042h
  5112  0AAC  00CD               	movwf	((??_analog_sen+0)+0)
  5113  0AAD  30FF               	movlw	0FFh
  5114  0AAE  00CE               	movwf	((??_analog_sen+0)+0+1)
  5115  0AAF  30FF               	movlw	0FFh
  5116  0AB0  00CF               	movwf	((??_analog_sen+0)+0+2)
  5117  0AB1  30FF               	movlw	0FFh
  5118  0AB2  00D0               	movwf	((??_analog_sen+0)+0+3)
  5119  0AB3  0852               	movf	(analog_sen@voltage),w
  5120  0AB4  07CD               	addwf	(??_analog_sen+0)+0,f
  5121  0AB5  0853               	movf	(analog_sen@voltage+1),w
  5122  0AB6  1803               	skipnc
  5123  0AB7  0F53               	incfsz	(analog_sen@voltage+1),w
  5124  0AB8  2ABA               	goto	u3780
  5125  0AB9  2ABB               	goto	u3781
  5126  0ABA                     u3780:
  5127  0ABA  07CE               	addwf	(??_analog_sen+0)+1,f
  5128  0ABB                     u3781:
  5129  0ABB  0854               	movf	(analog_sen@voltage+2),w
  5130  0ABC  1803               	skipnc
  5131  0ABD  0F54               	incfsz	(analog_sen@voltage+2),w
  5132  0ABE  2AC0               	goto	u3782
  5133  0ABF  2AC1               	goto	u3783
  5134  0AC0                     u3782:
  5135  0AC0  07CF               	addwf	(??_analog_sen+0)+2,f
  5136  0AC1                     u3783:
  5137  0AC1  0855               	movf	(analog_sen@voltage+3),w
  5138  0AC2  1803               	skipnc
  5139  0AC3  0A55               	incf	(analog_sen@voltage+3),w
  5140  0AC4  07D0               	addwf	(??_analog_sen+0)+3,f
  5141  0AC5  0850               	movf	3+(??_analog_sen+0)+0,w
  5142  0AC6  00D5               	movwf	(analog_sen@voltage+3)
  5143  0AC7  084F               	movf	2+(??_analog_sen+0)+0,w
  5144  0AC8  00D4               	movwf	(analog_sen@voltage+2)
  5145  0AC9  084E               	movf	1+(??_analog_sen+0)+0,w
  5146  0ACA  00D3               	movwf	(analog_sen@voltage+1)
  5147  0ACB  084D               	movf	0+(??_analog_sen+0)+0,w
  5148  0ACC  00D2               	movwf	(analog_sen@voltage)
  5149                           
  5150                           	line	893
  5151                           	
  5152  0ACD                     l3720:	
  5153                           ;PR23.c: 893: distance = 20990 / voltage ;
  5154  0ACD  0855               	movf	(analog_sen@voltage+3),w
  5155  0ACE  00B0               	movwf	(?___lldiv+3)
  5156  0ACF  0854               	movf	(analog_sen@voltage+2),w
  5157  0AD0  00AF               	movwf	(?___lldiv+2)
  5158  0AD1  0853               	movf	(analog_sen@voltage+1),w
  5159  0AD2  00AE               	movwf	(?___lldiv+1)
  5160  0AD3  0852               	movf	(analog_sen@voltage),w
  5161  0AD4  00AD               	movwf	(?___lldiv)
  5162                           
  5163  0AD5  3000               	movlw	0
  5164  0AD6  00B4               	movwf	3+(?___lldiv)+04h
  5165  0AD7  3000               	movlw	0
  5166  0AD8  00B3               	movwf	2+(?___lldiv)+04h
  5167  0AD9  3051               	movlw	051h
  5168  0ADA  00B2               	movwf	1+(?___lldiv)+04h
  5169  0ADB  30FE               	movlw	0FEh
  5170  0ADC  00B1               	movwf	0+(?___lldiv)+04h
  5171                           
  5172  0ADD  120A  118A  278A   	fcall	___lldiv
              120A  158A         
  5173  0AE2  1283               	bcf	status, 5	;RP0=0, select bank0
  5174  0AE3  1303               	bcf	status, 6	;RP1=0, select bank0
  5175  0AE4  082D               	movf	0+(((0+(?___lldiv)))),w
  5176  0AE5  00CD               	movwf	(??_analog_sen+0)+0
  5177  0AE6  084D               	movf	(??_analog_sen+0)+0,w
  5178  0AE7  00D1               	movwf	(analog_sen@distance)
  5179                           	line	894
  5180                           	
  5181  0AE8                     l3722:	
  5182                           ;PR23.c: 894: lcd_dis_num(2,distance);
  5183  0AE8  0851               	movf	(analog_sen@distance),w
  5184  0AE9  00CD               	movwf	(??_analog_sen+0)+0+0
  5185  0AEA  01CE               	clrf	(??_analog_sen+0)+0+1
  5186  0AEB  084D               	movf	0+(??_analog_sen+0)+0,w
  5187  0AEC  00A9               	movwf	(?_lcd_dis_num)
  5188  0AED  084E               	movf	1+(??_analog_sen+0)+0,w
  5189  0AEE  00AA               	movwf	(?_lcd_dis_num+1)
  5190  0AEF  3002               	movlw	(02h)
  5191  0AF0  120A  158A  2109   	fcall	_lcd_dis_num
              120A  158A         
  5192                           	line	895
  5193                           	
  5194  0AF5                     l3724:	
  5195                           ;PR23.c: 895: lcd_char(' ');
  5196  0AF5  3020               	movlw	(020h)
  5197  0AF6  160A  118A  24DC   	fcall	_lcd_char
              120A  158A         
  5198                           	line	897
  5199                           	
  5200  0AFB                     l3726:	
  5201                           ;PR23.c: 897: if (distance > 30)
  5202  0AFB  301F               	movlw	(01Fh)
  5203  0AFC  1283               	bcf	status, 5	;RP0=0, select bank0
  5204  0AFD  1303               	bcf	status, 6	;RP1=0, select bank0
  5205  0AFE  0251               	subwf	(analog_sen@distance),w
  5206  0AFF  1C03               	skipc
  5207  0B00  2B02               	goto	u3791
  5208  0B01  2B03               	goto	u3790
  5209  0B02                     u3791:
  5210  0B02  2B10               	goto	l3736
  5211  0B03                     u3790:
  5212                           	line	899
  5213                           	
  5214  0B03                     l3728:	
  5215                           ;PR23.c: 898: {
  5216                           ;PR23.c: 899: backward();
  5217  0B03  160A  118A  244B   	fcall	_backward
              120A  158A         
  5218                           	line	900
  5219                           	
  5220  0B08                     l3730:	
  5221                           ;PR23.c: 900: CCPR1L = 255;
  5222  0B08  30FF               	movlw	(0FFh)
  5223  0B09  1283               	bcf	status, 5	;RP0=0, select bank0
  5224  0B0A  1303               	bcf	status, 6	;RP1=0, select bank0
  5225  0B0B  0095               	movwf	(21)	;volatile
  5226                           	line	901
  5227                           	
  5228  0B0C                     l3732:	
  5229                           ;PR23.c: 901: CCPR2L = 255;
  5230  0B0C  30FF               	movlw	(0FFh)
  5231  0B0D  009B               	movwf	(27)	;volatile
  5232                           	line	902
  5233                           	
  5234  0B0E                     l3734:	
  5235                           ;PR23.c: 902: RE2 = 0;
  5236  0B0E  1109               	bcf	(74/8),(74)&7	;volatile
  5237                           	line	903
  5238                           ;PR23.c: 903: }
  5239  0B0F  2A3D               	goto	l3708
  5240                           	line	904
  5241                           	
  5242  0B10                     l434:	
  5243                           	
  5244  0B10                     l3736:	
  5245                           ;PR23.c: 904: else if (distance > 20)
  5246  0B10  3015               	movlw	(015h)
  5247  0B11  0251               	subwf	(analog_sen@distance),w
  5248  0B12  1C03               	skipc
  5249  0B13  2B15               	goto	u3801
  5250  0B14  2B16               	goto	u3800
  5251  0B15                     u3801:
  5252  0B15  2B23               	goto	l3746
  5253  0B16                     u3800:
  5254                           	line	906
  5255                           	
  5256  0B16                     l3738:	
  5257                           ;PR23.c: 905: {
  5258                           ;PR23.c: 906: backward();
  5259  0B16  160A  118A  244B   	fcall	_backward
              120A  158A         
  5260                           	line	907
  5261                           	
  5262  0B1B                     l3740:	
  5263                           ;PR23.c: 907: CCPR1L = 200;
  5264  0B1B  30C8               	movlw	(0C8h)
  5265  0B1C  1283               	bcf	status, 5	;RP0=0, select bank0
  5266  0B1D  1303               	bcf	status, 6	;RP1=0, select bank0
  5267  0B1E  0095               	movwf	(21)	;volatile
  5268                           	line	908
  5269                           	
  5270  0B1F                     l3742:	
  5271                           ;PR23.c: 908: CCPR2L = 200;
  5272  0B1F  30C8               	movlw	(0C8h)
  5273  0B20  009B               	movwf	(27)	;volatile
  5274                           	line	909
  5275                           	
  5276  0B21                     l3744:	
  5277                           ;PR23.c: 909: RE2 = 0;
  5278  0B21  1109               	bcf	(74/8),(74)&7	;volatile
  5279                           	line	910
  5280                           ;PR23.c: 910: }
  5281  0B22  2A3D               	goto	l3708
  5282                           	line	911
  5283                           	
  5284  0B23                     l436:	
  5285                           	
  5286  0B23                     l3746:	
  5287                           ;PR23.c: 911: else if( distance > 15)
  5288  0B23  3010               	movlw	(010h)
  5289  0B24  0251               	subwf	(analog_sen@distance),w
  5290  0B25  1C03               	skipc
  5291  0B26  2B28               	goto	u3811
  5292  0B27  2B29               	goto	u3810
  5293  0B28                     u3811:
  5294  0B28  2B32               	goto	l3752
  5295  0B29                     u3810:
  5296                           	line	913
  5297                           	
  5298  0B29                     l3748:	
  5299                           ;PR23.c: 912: {
  5300                           ;PR23.c: 913: stop();
  5301  0B29  160A  118A  2459   	fcall	_stop
              120A  158A         
  5302                           	line	914
  5303                           	
  5304  0B2E                     l3750:	
  5305                           ;PR23.c: 914: RE2 = 0;
  5306  0B2E  1283               	bcf	status, 5	;RP0=0, select bank0
  5307  0B2F  1303               	bcf	status, 6	;RP1=0, select bank0
  5308  0B30  1109               	bcf	(74/8),(74)&7	;volatile
  5309                           	line	915
  5310                           ;PR23.c: 915: }
  5311  0B31  2A3D               	goto	l3708
  5312                           	line	916
  5313                           	
  5314  0B32                     l438:	
  5315                           	line	918
  5316                           	
  5317  0B32                     l3752:	
  5318                           ;PR23.c: 916: else
  5319                           ;PR23.c: 917: {
  5320                           ;PR23.c: 918: forward();
  5321  0B32  160A  118A  2452   	fcall	_forward
              120A  158A         
  5322                           	line	919
  5323                           	
  5324  0B37                     l3754:	
  5325                           ;PR23.c: 919: CCPR1L = 200;
  5326  0B37  30C8               	movlw	(0C8h)
  5327  0B38  1283               	bcf	status, 5	;RP0=0, select bank0
  5328  0B39  1303               	bcf	status, 6	;RP1=0, select bank0
  5329  0B3A  0095               	movwf	(21)	;volatile
  5330                           	line	920
  5331                           	
  5332  0B3B                     l3756:	
  5333                           ;PR23.c: 920: CCPR2L = 200;
  5334  0B3B  30C8               	movlw	(0C8h)
  5335  0B3C  009B               	movwf	(27)	;volatile
  5336                           	line	921
  5337                           	
  5338  0B3D                     l3758:	
  5339                           ;PR23.c: 921: RE2 = 1;
  5340  0B3D  1509               	bsf	(74/8),(74)&7	;volatile
  5341  0B3E  2A3D               	goto	l3708
  5342                           	line	922
  5343                           	
  5344  0B3F                     l439:	
  5345  0B3F  2A3D               	goto	l3708
  5346                           	
  5347  0B40                     l437:	
  5348  0B40  2A3D               	goto	l3708
  5349                           	
  5350  0B41                     l435:	
  5351                           	line	923
  5352                           ;PR23.c: 922: }
  5353                           ;PR23.c: 923: }
  5354  0B41  2A3D               	goto	l3708
  5355                           	line	924
  5356                           	
  5357  0B42                     l433:	
  5358                           	line	926
  5359                           	
  5360  0B42                     l3760:	
  5361                           ;PR23.c: 924: else
  5362                           ;PR23.c: 925: {
  5363                           ;PR23.c: 926: lcd_string ("Out");
  5364  0B42  30B6               	movlw	low(STR_24|8000h)
  5365  0B43  00A9               	movwf	(?_lcd_string)
  5366  0B44  3083               	movlw	high(STR_24|8000h)
  5367  0B45  00AA               	movwf	((?_lcd_string))+1
  5368  0B46  160A  118A  25EE   	fcall	_lcd_string
              120A  158A         
  5369                           	line	927
  5370                           	
  5371  0B4B                     l3762:	
  5372                           ;PR23.c: 927: stop();
  5373  0B4B  160A  118A  2459   	fcall	_stop
              120A  158A         
  5374  0B50  2A3D               	goto	l3708
  5375                           	line	929
  5376                           	
  5377  0B51                     l440:	
  5378  0B51  2A3D               	goto	l3708
  5379                           	line	930
  5380                           	
  5381  0B52                     l441:	
  5382                           	line	871
  5383  0B52  2A3D               	goto	l3708
  5384                           	
  5385  0B53                     l442:	
  5386                           	line	931
  5387                           	
  5388  0B53                     l443:	
  5389  0B53  0008               	return
  5390                           	opt stack 0
  5391                           GLOBAL	__end_of_analog_sen
  5392  0B54                     	__end_of_analog_sen:
  5393                           	signat	_analog_sen,88
  5394                           	global	_wireless_xbee
  5395                           
  5396 ;; *************** function _wireless_xbee *****************
  5397 ;; Defined at:
  5398 ;;		line 941 in file "PR23.c"
  5399 ;; Parameters:    Size  Location     Type
  5400 ;;		None
  5401 ;; Auto vars:     Size  Location     Type
  5402 ;;  uart_data       1   13[BANK0 ] unsigned char 
  5403 ;; Return value:  Size  Location     Type
  5404 ;;		None               void
  5405 ;; Registers used:
  5406 ;;		wreg, fsr0l, fsr0h, fsr1l, fsr1h, status,2, status,0, btemp+1, pclath, cstack
  5407 ;; Tracked objects:
  5408 ;;		On entry : 0/0
  5409 ;;		On exit  : 0/0
  5410 ;;		Unchanged: 0/0
  5411 ;; Data sizes:     COMMON   BANK0   BANK1   BANK3   BANK2
  5412 ;;      Params:         0       0       0       0       0
  5413 ;;      Locals:         0       1       0       0       0
  5414 ;;      Temps:          0       1       0       0       0
  5415 ;;      Totals:         0       2       0       0       0
  5416 ;;Total ram usage:        2 bytes
  5417 ;; Hardware stack levels used:    1
  5418 ;; Hardware stack levels required when called:    6
  5419 ;; This function calls:
  5420 ;;		_disable_global_int
  5421 ;;		_uart_init
  5422 ;;		_lcd_clr
  5423 ;;		_lcd_string
  5424 ;;		_lcd_2ndline
  5425 ;;		_delay_ms
  5426 ;;		_lcd_clr_line
  5427 ;;		_uart_rec
  5428 ;;		_beep
  5429 ;;		_uart_string_nl
  5430 ;;		_stop
  5431 ;;		_forward
  5432 ;;		_lcd_goto
  5433 ;;		_backward
  5434 ;;		_right
  5435 ;;		_left
  5436 ;; This function is called by:
  5437 ;;		_main
  5438 ;; This function uses a non-reentrant model
  5439 ;;
  5440                           psect	text1388,local,class=CODE,delta=2,merge=1
  5441                           global __ptext1388
  5442  05B9                     __ptext1388:	;psect for function _wireless_xbee
  5443                           psect	text1388
  5444                           	file	"PR23.c"
  5445                           	line	941
  5446                           	global	__size_of_wireless_xbee
  5447  01D1                     	__size_of_wireless_xbee	equ	__end_of_wireless_xbee-_wireless_xbee
  5448                           	
  5449  05B9                     _wireless_xbee:	
  5450                           	opt	stack 1
  5451                           ; Regs used in _wireless_xbee: [allreg]
  5452                           	line	942
  5453                           	
  5454  05B9                     l3764:	
  5455                           ;PR23.c: 942: unsigned char uart_data = 0;
  5456  05B9  1283               	bcf	status, 5	;RP0=0, select bank0
  5457  05BA  1303               	bcf	status, 6	;RP1=0, select bank0
  5458  05BB  01AD               	clrf	(wireless_xbee@uart_data)
  5459                           	line	943
  5460                           	
  5461  05BC                     l3766:	
  5462                           ;PR23.c: 943: disable_global_int();
  5463  05BC  160A  118A  2434   	fcall	_disable_global_int
              120A  118A         
  5464                           	line	944
  5465                           	
  5466  05C1                     l3768:	
  5467                           ;PR23.c: 944: uart_init();
  5468  05C1  120A  118A  20E2   	fcall	_uart_init
              120A  118A         
  5469                           	line	945
  5470                           	
  5471  05C6                     l3770:	
  5472                           ;PR23.c: 945: lcd_clr();
  5473  05C6  160A  118A  24C6   	fcall	_lcd_clr
              120A  118A         
  5474                           	line	946
  5475                           	
  5476  05CB                     l3772:	
  5477                           ;PR23.c: 946: lcd_string(" SKXBee Control");
  5478  05CB  3074               	movlw	low(STR_25|8000h)
  5479  05CC  1283               	bcf	status, 5	;RP0=0, select bank0
  5480  05CD  1303               	bcf	status, 6	;RP1=0, select bank0
  5481  05CE  00A9               	movwf	(?_lcd_string)
  5482  05CF  3082               	movlw	high(STR_25|8000h)
  5483  05D0  00AA               	movwf	((?_lcd_string))+1
  5484  05D1  160A  118A  25EE   	fcall	_lcd_string
              120A  118A         
  5485                           	line	947
  5486                           	
  5487  05D6                     l3774:	
  5488                           ;PR23.c: 947: lcd_2ndline();
  5489  05D6  120A  118A  27F9   	fcall	_lcd_2ndline
              120A  118A         
  5490                           	line	948
  5491                           	
  5492  05DB                     l3776:	
  5493                           ;PR23.c: 948: lcd_string("JP7 to UC");
  5494  05DB  3034               	movlw	low(STR_26|8000h)
  5495  05DC  1283               	bcf	status, 5	;RP0=0, select bank0
  5496  05DD  1303               	bcf	status, 6	;RP1=0, select bank0
  5497  05DE  00A9               	movwf	(?_lcd_string)
  5498  05DF  3083               	movlw	high(STR_26|8000h)
  5499  05E0  00AA               	movwf	((?_lcd_string))+1
  5500  05E1  160A  118A  25EE   	fcall	_lcd_string
              120A  118A         
  5501                           	line	949
  5502                           	
  5503  05E6                     l3778:	
  5504                           ;PR23.c: 949: delay_ms(1000);
  5505  05E6  3000               	movlw	0
  5506  05E7  1283               	bcf	status, 5	;RP0=0, select bank0
  5507  05E8  1303               	bcf	status, 6	;RP1=0, select bank0
  5508  05E9  00A3               	movwf	(?_delay_ms+3)
  5509  05EA  3000               	movlw	0
  5510  05EB  00A2               	movwf	(?_delay_ms+2)
  5511  05EC  3003               	movlw	03h
  5512  05ED  00A1               	movwf	(?_delay_ms+1)
  5513  05EE  30E8               	movlw	0E8h
  5514  05EF  00A0               	movwf	(?_delay_ms)
  5515                           
  5516  05F0  160A  118A  26CD   	fcall	_delay_ms
              120A  118A         
  5517                           	line	950
  5518                           	
  5519  05F5                     l3780:	
  5520                           ;PR23.c: 950: lcd_clr_line(1);
  5521  05F5  3001               	movlw	(01h)
  5522  05F6  160A  118A  2691   	fcall	_lcd_clr_line
              120A  118A         
  5523                           	line	951
  5524                           	
  5525  05FB                     l3782:	
  5526                           ;PR23.c: 951: lcd_2ndline();
  5527  05FB  120A  118A  27F9   	fcall	_lcd_2ndline
              120A  118A         
  5528                           	line	952
  5529                           	
  5530  0600                     l3784:	
  5531                           ;PR23.c: 952: lcd_string(" d on computer");
  5532  0600  30C1               	movlw	low(STR_27|8000h)
  5533  0601  1283               	bcf	status, 5	;RP0=0, select bank0
  5534  0602  1303               	bcf	status, 6	;RP1=0, select bank0
  5535  0603  00A9               	movwf	(?_lcd_string)
  5536  0604  3082               	movlw	high(STR_27|8000h)
  5537  0605  00AA               	movwf	((?_lcd_string))+1
  5538  0606  160A  118A  25EE   	fcall	_lcd_string
              120A  118A         
  5539                           	line	954
  5540                           ;PR23.c: 954: while(uart_rec() != 'd');
  5541  060B  2E0D               	goto	l3786
  5542                           	
  5543  060C                     l447:	
  5544  060C  2E0D               	goto	l3786
  5545                           	
  5546  060D                     l446:	
  5547                           	
  5548  060D                     l3786:	
  5549  060D  160A  118A  24B0   	fcall	_uart_rec
              120A  118A         
  5550  0612  3A64               	xorlw	064h
  5551  0613  1D03               	skipz
  5552  0614  2E16               	goto	u3821
  5553  0615  2E17               	goto	u3820
  5554  0616                     u3821:
  5555  0616  2E0D               	goto	l3786
  5556  0617                     u3820:
  5557  0617  2E18               	goto	l3788
  5558                           	
  5559  0618                     l448:	
  5560                           	line	955
  5561                           	
  5562  0618                     l3788:	
  5563                           ;PR23.c: 955: lcd_clr_line(1);
  5564  0618  3001               	movlw	(01h)
  5565  0619  160A  118A  2691   	fcall	_lcd_clr_line
              120A  118A         
  5566                           	line	956
  5567                           	
  5568  061E                     l3790:	
  5569                           ;PR23.c: 956: lcd_2ndline();
  5570  061E  120A  118A  27F9   	fcall	_lcd_2ndline
              120A  118A         
  5571                           	line	957
  5572                           	
  5573  0623                     l3792:	
  5574                           ;PR23.c: 957: lcd_string("Ready to control!");
  5575  0623  3041               	movlw	low(STR_28|8000h)
  5576  0624  1283               	bcf	status, 5	;RP0=0, select bank0
  5577  0625  1303               	bcf	status, 6	;RP1=0, select bank0
  5578  0626  00A9               	movwf	(?_lcd_string)
  5579  0627  3082               	movlw	high(STR_28|8000h)
  5580  0628  00AA               	movwf	((?_lcd_string))+1
  5581  0629  160A  118A  25EE   	fcall	_lcd_string
              120A  118A         
  5582                           	line	958
  5583                           	
  5584  062E                     l3794:	
  5585                           ;PR23.c: 958: beep(2);
  5586  062E  3002               	movlw	(02h)
  5587  062F  160A  118A  25BF   	fcall	_beep
              120A  118A         
  5588                           	line	960
  5589                           	
  5590  0634                     l3796:	
  5591                           ;PR23.c: 960: uart_string_nl("Congrats!");
  5592  0634  302A               	movlw	low(STR_29|8000h)
  5593  0635  1283               	bcf	status, 5	;RP0=0, select bank0
  5594  0636  1303               	bcf	status, 6	;RP1=0, select bank0
  5595  0637  00A3               	movwf	(?_uart_string_nl)
  5596  0638  3083               	movlw	high(STR_29|8000h)
  5597  0639  00A4               	movwf	((?_uart_string_nl))+1
  5598  063A  160A  118A  250E   	fcall	_uart_string_nl
              120A  118A         
  5599                           	line	961
  5600                           	
  5601  063F                     l3798:	
  5602                           ;PR23.c: 961: uart_string_nl("Connected with XBee wireless");
  5603  063F  30D2               	movlw	low(STR_30|8000h)
  5604  0640  1283               	bcf	status, 5	;RP0=0, select bank0
  5605  0641  1303               	bcf	status, 6	;RP1=0, select bank0
  5606  0642  00A3               	movwf	(?_uart_string_nl)
  5607  0643  3081               	movlw	high(STR_30|8000h)
  5608  0644  00A4               	movwf	((?_uart_string_nl))+1
  5609  0645  160A  118A  250E   	fcall	_uart_string_nl
              120A  118A         
  5610                           	line	962
  5611                           	
  5612  064A                     l3800:	
  5613                           ;PR23.c: 962: uart_string_nl("number 8 = forward");
  5614  064A  302E               	movlw	low(STR_31|8000h)
  5615  064B  1283               	bcf	status, 5	;RP0=0, select bank0
  5616  064C  1303               	bcf	status, 6	;RP1=0, select bank0
  5617  064D  00A3               	movwf	(?_uart_string_nl)
  5618  064E  3082               	movlw	high(STR_31|8000h)
  5619  064F  00A4               	movwf	((?_uart_string_nl))+1
  5620  0650  160A  118A  250E   	fcall	_uart_string_nl
              120A  118A         
  5621                           	line	963
  5622                           	
  5623  0655                     l3802:	
  5624                           ;PR23.c: 963: uart_string_nl("number 2 = backward");
  5625  0655  301A               	movlw	low(STR_32|8000h)
  5626  0656  1283               	bcf	status, 5	;RP0=0, select bank0
  5627  0657  1303               	bcf	status, 6	;RP1=0, select bank0
  5628  0658  00A3               	movwf	(?_uart_string_nl)
  5629  0659  3082               	movlw	high(STR_32|8000h)
  5630  065A  00A4               	movwf	((?_uart_string_nl))+1
  5631  065B  160A  118A  250E   	fcall	_uart_string_nl
              120A  118A         
  5632                           	line	964
  5633                           	
  5634  0660                     l3804:	
  5635                           ;PR23.c: 964: uart_string_nl("number 6 = turn right");
  5636  0660  30EF               	movlw	low(STR_33|8000h)
  5637  0661  1283               	bcf	status, 5	;RP0=0, select bank0
  5638  0662  1303               	bcf	status, 6	;RP1=0, select bank0
  5639  0663  00A3               	movwf	(?_uart_string_nl)
  5640  0664  3081               	movlw	high(STR_33|8000h)
  5641  0665  00A4               	movwf	((?_uart_string_nl))+1
  5642  0666  160A  118A  250E   	fcall	_uart_string_nl
              120A  118A         
  5643                           	line	965
  5644                           	
  5645  066B                     l3806:	
  5646                           ;PR23.c: 965: uart_string_nl("number 4 = turn left");
  5647  066B  3005               	movlw	low(STR_34|8000h)
  5648  066C  1283               	bcf	status, 5	;RP0=0, select bank0
  5649  066D  1303               	bcf	status, 6	;RP1=0, select bank0
  5650  066E  00A3               	movwf	(?_uart_string_nl)
  5651  066F  3082               	movlw	high(STR_34|8000h)
  5652  0670  00A4               	movwf	((?_uart_string_nl))+1
  5653  0671  160A  118A  250E   	fcall	_uart_string_nl
              120A  118A         
  5654                           	line	966
  5655                           	
  5656  0676                     l3808:	
  5657                           ;PR23.c: 966: uart_string_nl("Other = stop and invalid command");
  5658  0676  30B1               	movlw	low(STR_35|8000h)
  5659  0677  1283               	bcf	status, 5	;RP0=0, select bank0
  5660  0678  1303               	bcf	status, 6	;RP1=0, select bank0
  5661  0679  00A3               	movwf	(?_uart_string_nl)
  5662  067A  3081               	movlw	high(STR_35|8000h)
  5663  067B  00A4               	movwf	((?_uart_string_nl))+1
  5664  067C  160A  118A  250E   	fcall	_uart_string_nl
              120A  118A         
  5665                           	line	968
  5666                           	
  5667  0681                     l3810:	
  5668                           ;PR23.c: 968: CCPR1L = 200;
  5669  0681  30C8               	movlw	(0C8h)
  5670  0682  1283               	bcf	status, 5	;RP0=0, select bank0
  5671  0683  1303               	bcf	status, 6	;RP1=0, select bank0
  5672  0684  0095               	movwf	(21)	;volatile
  5673                           	line	969
  5674                           	
  5675  0685                     l3812:	
  5676                           ;PR23.c: 969: CCPR2L = 200;
  5677  0685  30C8               	movlw	(0C8h)
  5678  0686  009B               	movwf	(27)	;volatile
  5679                           	line	971
  5680                           	
  5681  0687                     l3814:	
  5682                           ;PR23.c: 971: stop();
  5683  0687  160A  118A  2459   	fcall	_stop
              120A  118A         
  5684  068C  2E8D               	goto	l3816
  5685                           	line	973
  5686                           ;PR23.c: 973: while(1)
  5687                           	
  5688  068D                     l449:	
  5689                           	line	975
  5690                           	
  5691  068D                     l3816:	
  5692                           ;PR23.c: 974: {
  5693                           ;PR23.c: 975: uart_data = uart_rec();
  5694  068D  160A  118A  24B0   	fcall	_uart_rec
              120A  118A         
  5695  0692  1283               	bcf	status, 5	;RP0=0, select bank0
  5696  0693  1303               	bcf	status, 6	;RP1=0, select bank0
  5697  0694  00AC               	movwf	(??_wireless_xbee+0)+0
  5698  0695  082C               	movf	(??_wireless_xbee+0)+0,w
  5699  0696  00AD               	movwf	(wireless_xbee@uart_data)
  5700                           	line	976
  5701                           	
  5702  0697                     l3818:	
  5703                           ;PR23.c: 976: lcd_2ndline();
  5704  0697  120A  118A  27F9   	fcall	_lcd_2ndline
              120A  118A         
  5705                           	line	977
  5706                           	
  5707  069C                     l3820:	
  5708                           ;PR23.c: 977: if (uart_data == '8')
  5709  069C  1283               	bcf	status, 5	;RP0=0, select bank0
  5710  069D  1303               	bcf	status, 6	;RP1=0, select bank0
  5711  069E  082D               	movf	(wireless_xbee@uart_data),w
  5712  069F  3A38               	xorlw	038h
  5713  06A0  1D03               	skipz
  5714  06A1  2EA3               	goto	u3831
  5715  06A2  2EA4               	goto	u3830
  5716  06A3                     u3831:
  5717  06A3  2ECC               	goto	l3832
  5718  06A4                     u3830:
  5719                           	line	979
  5720                           	
  5721  06A4                     l3822:	
  5722                           ;PR23.c: 978: {
  5723                           ;PR23.c: 979: forward();
  5724  06A4  160A  118A  2452   	fcall	_forward
              120A  118A         
  5725                           	line	980
  5726                           	
  5727  06A9                     l3824:	
  5728                           ;PR23.c: 980: lcd_clr_line(1);
  5729  06A9  3001               	movlw	(01h)
  5730  06AA  160A  118A  2691   	fcall	_lcd_clr_line
              120A  118A         
  5731                           	line	981
  5732                           	
  5733  06AF                     l3826:	
  5734                           ;PR23.c: 981: lcd_goto(0x44);
  5735  06AF  3044               	movlw	(044h)
  5736  06B0  120A  158A  2000   	fcall	_lcd_goto
              120A  118A         
  5737                           	line	982
  5738                           	
  5739  06B5                     l3828:	
  5740                           ;PR23.c: 982: lcd_string("Forward");
  5741  06B5  3084               	movlw	low(STR_36|8000h)
  5742  06B6  1283               	bcf	status, 5	;RP0=0, select bank0
  5743  06B7  1303               	bcf	status, 6	;RP1=0, select bank0
  5744  06B8  00A9               	movwf	(?_lcd_string)
  5745  06B9  3083               	movlw	high(STR_36|8000h)
  5746  06BA  00AA               	movwf	((?_lcd_string))+1
  5747  06BB  160A  118A  25EE   	fcall	_lcd_string
              120A  118A         
  5748                           	line	983
  5749                           	
  5750  06C0                     l3830:	
  5751                           ;PR23.c: 983: uart_string_nl("Forward!");
  5752  06C0  3051               	movlw	low(STR_37|8000h)
  5753  06C1  1283               	bcf	status, 5	;RP0=0, select bank0
  5754  06C2  1303               	bcf	status, 6	;RP1=0, select bank0
  5755  06C3  00A3               	movwf	(?_uart_string_nl)
  5756  06C4  3083               	movlw	high(STR_37|8000h)
  5757  06C5  00A4               	movwf	((?_uart_string_nl))+1
  5758  06C6  160A  118A  250E   	fcall	_uart_string_nl
              120A  118A         
  5759                           	line	984
  5760                           ;PR23.c: 984: }
  5761  06CB  2E8D               	goto	l3816
  5762                           	line	985
  5763                           	
  5764  06CC                     l450:	
  5765                           	
  5766  06CC                     l3832:	
  5767                           ;PR23.c: 985: else if (uart_data == '2')
  5768  06CC  1283               	bcf	status, 5	;RP0=0, select bank0
  5769  06CD  1303               	bcf	status, 6	;RP1=0, select bank0
  5770  06CE  082D               	movf	(wireless_xbee@uart_data),w
  5771  06CF  3A32               	xorlw	032h
  5772  06D0  1D03               	skipz
  5773  06D1  2ED3               	goto	u3841
  5774  06D2  2ED4               	goto	u3840
  5775  06D3                     u3841:
  5776  06D3  2EFC               	goto	l3844
  5777  06D4                     u3840:
  5778                           	line	987
  5779                           	
  5780  06D4                     l3834:	
  5781                           ;PR23.c: 986: {
  5782                           ;PR23.c: 987: backward();
  5783  06D4  160A  118A  244B   	fcall	_backward
              120A  118A         
  5784                           	line	988
  5785                           	
  5786  06D9                     l3836:	
  5787                           ;PR23.c: 988: lcd_clr_line(1);
  5788  06D9  3001               	movlw	(01h)
  5789  06DA  160A  118A  2691   	fcall	_lcd_clr_line
              120A  118A         
  5790                           	line	989
  5791                           	
  5792  06DF                     l3838:	
  5793                           ;PR23.c: 989: lcd_goto(0x44);
  5794  06DF  3044               	movlw	(044h)
  5795  06E0  120A  158A  2000   	fcall	_lcd_goto
              120A  118A         
  5796                           	line	990
  5797                           	
  5798  06E5                     l3840:	
  5799                           ;PR23.c: 990: lcd_string("BACKWARD");
  5800  06E5  3063               	movlw	low(STR_38|8000h)
  5801  06E6  1283               	bcf	status, 5	;RP0=0, select bank0
  5802  06E7  1303               	bcf	status, 6	;RP1=0, select bank0
  5803  06E8  00A9               	movwf	(?_lcd_string)
  5804  06E9  3083               	movlw	high(STR_38|8000h)
  5805  06EA  00AA               	movwf	((?_lcd_string))+1
  5806  06EB  160A  118A  25EE   	fcall	_lcd_string
              120A  118A         
  5807                           	line	991
  5808                           	
  5809  06F0                     l3842:	
  5810                           ;PR23.c: 991: uart_string_nl("Backward!");
  5811  06F0  3020               	movlw	low(STR_39|8000h)
  5812  06F1  1283               	bcf	status, 5	;RP0=0, select bank0
  5813  06F2  1303               	bcf	status, 6	;RP1=0, select bank0
  5814  06F3  00A3               	movwf	(?_uart_string_nl)
  5815  06F4  3083               	movlw	high(STR_39|8000h)
  5816  06F5  00A4               	movwf	((?_uart_string_nl))+1
  5817  06F6  160A  118A  250E   	fcall	_uart_string_nl
              120A  118A         
  5818                           	line	992
  5819                           ;PR23.c: 992: }
  5820  06FB  2E8D               	goto	l3816
  5821                           	line	993
  5822                           	
  5823  06FC                     l452:	
  5824                           	
  5825  06FC                     l3844:	
  5826                           ;PR23.c: 993: else if (uart_data == '6')
  5827  06FC  1283               	bcf	status, 5	;RP0=0, select bank0
  5828  06FD  1303               	bcf	status, 6	;RP1=0, select bank0
  5829  06FE  082D               	movf	(wireless_xbee@uart_data),w
  5830  06FF  3A36               	xorlw	036h
  5831  0700  1D03               	skipz
  5832  0701  2F03               	goto	u3851
  5833  0702  2F04               	goto	u3850
  5834  0703                     u3851:
  5835  0703  2F2C               	goto	l3856
  5836  0704                     u3850:
  5837                           	line	995
  5838                           	
  5839  0704                     l3846:	
  5840                           ;PR23.c: 994: {
  5841                           ;PR23.c: 995: right();
  5842  0704  160A  118A  2444   	fcall	_right
              120A  118A         
  5843                           	line	996
  5844                           	
  5845  0709                     l3848:	
  5846                           ;PR23.c: 996: lcd_clr_line(1);
  5847  0709  3001               	movlw	(01h)
  5848  070A  160A  118A  2691   	fcall	_lcd_clr_line
              120A  118A         
  5849                           	line	997
  5850                           	
  5851  070F                     l3850:	
  5852                           ;PR23.c: 997: lcd_goto(0x43);
  5853  070F  3043               	movlw	(043h)
  5854  0710  120A  158A  2000   	fcall	_lcd_goto
              120A  118A         
  5855                           	line	998
  5856                           	
  5857  0715                     l3852:	
  5858                           ;PR23.c: 998: lcd_string("TURN RIGHT");
  5859  0715  3015               	movlw	low(STR_40|8000h)
  5860  0716  1283               	bcf	status, 5	;RP0=0, select bank0
  5861  0717  1303               	bcf	status, 6	;RP1=0, select bank0
  5862  0718  00A9               	movwf	(?_lcd_string)
  5863  0719  3083               	movlw	high(STR_40|8000h)
  5864  071A  00AA               	movwf	((?_lcd_string))+1
  5865  071B  160A  118A  25EE   	fcall	_lcd_string
              120A  118A         
  5866                           	line	999
  5867                           	
  5868  0720                     l3854:	
  5869                           ;PR23.c: 999: uart_string_nl("Turn Right!");
  5870  0720  30DD               	movlw	low(STR_41|8000h)
  5871  0721  1283               	bcf	status, 5	;RP0=0, select bank0
  5872  0722  1303               	bcf	status, 6	;RP1=0, select bank0
  5873  0723  00A3               	movwf	(?_uart_string_nl)
  5874  0724  3082               	movlw	high(STR_41|8000h)
  5875  0725  00A4               	movwf	((?_uart_string_nl))+1
  5876  0726  160A  118A  250E   	fcall	_uart_string_nl
              120A  118A         
  5877                           	line	1000
  5878                           ;PR23.c: 1000: }
  5879  072B  2E8D               	goto	l3816
  5880                           	line	1001
  5881                           	
  5882  072C                     l454:	
  5883                           	
  5884  072C                     l3856:	
  5885                           ;PR23.c: 1001: else if (uart_data == '4')
  5886  072C  1283               	bcf	status, 5	;RP0=0, select bank0
  5887  072D  1303               	bcf	status, 6	;RP1=0, select bank0
  5888  072E  082D               	movf	(wireless_xbee@uart_data),w
  5889  072F  3A34               	xorlw	034h
  5890  0730  1D03               	skipz
  5891  0731  2F33               	goto	u3861
  5892  0732  2F34               	goto	u3860
  5893  0733                     u3861:
  5894  0733  2F5C               	goto	l3868
  5895  0734                     u3860:
  5896                           	line	1003
  5897                           	
  5898  0734                     l3858:	
  5899                           ;PR23.c: 1002: {
  5900                           ;PR23.c: 1003: left();
  5901  0734  160A  118A  243D   	fcall	_left
              120A  118A         
  5902                           	line	1004
  5903                           	
  5904  0739                     l3860:	
  5905                           ;PR23.c: 1004: lcd_clr_line(1);
  5906  0739  3001               	movlw	(01h)
  5907  073A  160A  118A  2691   	fcall	_lcd_clr_line
              120A  118A         
  5908                           	line	1005
  5909                           	
  5910  073F                     l3862:	
  5911                           ;PR23.c: 1005: lcd_goto(0x43);
  5912  073F  3043               	movlw	(043h)
  5913  0740  120A  158A  2000   	fcall	_lcd_goto
              120A  118A         
  5914                           	line	1006
  5915                           	
  5916  0745                     l3864:	
  5917                           ;PR23.c: 1006: lcd_string("TURN LEFT");
  5918  0745  303E               	movlw	low(STR_42|8000h)
  5919  0746  1283               	bcf	status, 5	;RP0=0, select bank0
  5920  0747  1303               	bcf	status, 6	;RP1=0, select bank0
  5921  0748  00A9               	movwf	(?_lcd_string)
  5922  0749  3083               	movlw	high(STR_42|8000h)
  5923  074A  00AA               	movwf	((?_lcd_string))+1
  5924  074B  160A  118A  25EE   	fcall	_lcd_string
              120A  118A         
  5925                           	line	1007
  5926                           	
  5927  0750                     l3866:	
  5928                           ;PR23.c: 1007: uart_string_nl("Turn Left!");
  5929  0750  300A               	movlw	low(STR_43|8000h)
  5930  0751  1283               	bcf	status, 5	;RP0=0, select bank0
  5931  0752  1303               	bcf	status, 6	;RP1=0, select bank0
  5932  0753  00A3               	movwf	(?_uart_string_nl)
  5933  0754  3083               	movlw	high(STR_43|8000h)
  5934  0755  00A4               	movwf	((?_uart_string_nl))+1
  5935  0756  160A  118A  250E   	fcall	_uart_string_nl
              120A  118A         
  5936                           	line	1008
  5937                           ;PR23.c: 1008: }
  5938  075B  2E8D               	goto	l3816
  5939                           	line	1009
  5940                           	
  5941  075C                     l456:	
  5942                           	line	1011
  5943                           	
  5944  075C                     l3868:	
  5945                           ;PR23.c: 1009: else
  5946                           ;PR23.c: 1010: {
  5947                           ;PR23.c: 1011: stop();
  5948  075C  160A  118A  2459   	fcall	_stop
              120A  118A         
  5949                           	line	1012
  5950                           	
  5951  0761                     l3870:	
  5952                           ;PR23.c: 1012: lcd_clr_line(1);
  5953  0761  3001               	movlw	(01h)
  5954  0762  160A  118A  2691   	fcall	_lcd_clr_line
              120A  118A         
  5955                           	line	1013
  5956                           	
  5957  0767                     l3872:	
  5958                           ;PR23.c: 1013: lcd_goto(0x40);
  5959  0767  3040               	movlw	(040h)
  5960  0768  120A  158A  2000   	fcall	_lcd_goto
              120A  118A         
  5961                           	line	1014
  5962                           	
  5963  076D                     l3874:	
  5964                           ;PR23.c: 1014: lcd_string("INVALID COMMAND");
  5965  076D  3064               	movlw	low(STR_44|8000h)
  5966  076E  1283               	bcf	status, 5	;RP0=0, select bank0
  5967  076F  1303               	bcf	status, 6	;RP1=0, select bank0
  5968  0770  00A9               	movwf	(?_lcd_string)
  5969  0771  3082               	movlw	high(STR_44|8000h)
  5970  0772  00AA               	movwf	((?_lcd_string))+1
  5971  0773  160A  118A  25EE   	fcall	_lcd_string
              120A  118A         
  5972                           	line	1015
  5973                           	
  5974  0778                     l3876:	
  5975                           ;PR23.c: 1015: uart_string_nl("Invalid Command!");
  5976  0778  3053               	movlw	low(STR_45|8000h)
  5977  0779  1283               	bcf	status, 5	;RP0=0, select bank0
  5978  077A  1303               	bcf	status, 6	;RP1=0, select bank0
  5979  077B  00A3               	movwf	(?_uart_string_nl)
  5980  077C  3082               	movlw	high(STR_45|8000h)
  5981  077D  00A4               	movwf	((?_uart_string_nl))+1
  5982  077E  160A  118A  250E   	fcall	_uart_string_nl
              120A  118A         
  5983  0783  2E8D               	goto	l3816
  5984                           	line	1016
  5985                           	
  5986  0784                     l457:	
  5987  0784  2E8D               	goto	l3816
  5988                           	
  5989  0785                     l455:	
  5990  0785  2E8D               	goto	l3816
  5991                           	
  5992  0786                     l453:	
  5993  0786  2E8D               	goto	l3816
  5994                           	
  5995  0787                     l451:	
  5996  0787  2E8D               	goto	l3816
  5997                           	line	1017
  5998                           	
  5999  0788                     l458:	
  6000                           	line	973
  6001  0788  2E8D               	goto	l3816
  6002                           	
  6003  0789                     l459:	
  6004                           	line	1018
  6005                           	
  6006  0789                     l460:	
  6007  0789  0008               	return
  6008                           	opt stack 0
  6009                           GLOBAL	__end_of_wireless_xbee
  6010  078A                     	__end_of_wireless_xbee:
  6011                           	signat	_wireless_xbee,88
  6012                           	global	_SKPS_PScon
  6013                           
  6014 ;; *************** function _SKPS_PScon *****************
  6015 ;; Defined at:
  6016 ;;		line 1025 in file "PR23.c"
  6017 ;; Parameters:    Size  Location     Type
  6018 ;;		None
  6019 ;; Auto vars:     Size  Location     Type
  6020 ;;  right_v         1   16[BANK0 ] unsigned char 
  6021 ;;  left_v          1   15[BANK0 ] unsigned char 
  6022 ;;  down_v          1   14[BANK0 ] unsigned char 
  6023 ;;  up_v            1   13[BANK0 ] unsigned char 
  6024 ;; Return value:  Size  Location     Type
  6025 ;;		None               void
  6026 ;; Registers used:
  6027 ;;		wreg, fsr0l, fsr0h, fsr1l, fsr1h, status,2, status,0, btemp+1, pclath, cstack
  6028 ;; Tracked objects:
  6029 ;;		On entry : 0/0
  6030 ;;		On exit  : 0/0
  6031 ;;		Unchanged: 0/0
  6032 ;; Data sizes:     COMMON   BANK0   BANK1   BANK3   BANK2
  6033 ;;      Params:         0       0       0       0       0
  6034 ;;      Locals:         0       4       0       0       0
  6035 ;;      Temps:          0       1       0       0       0
  6036 ;;      Totals:         0       5       0       0       0
  6037 ;;Total ram usage:        5 bytes
  6038 ;; Hardware stack levels used:    1
  6039 ;; Hardware stack levels required when called:    6
  6040 ;; This function calls:
  6041 ;;		_disable_global_int
  6042 ;;		_stop
  6043 ;;		_lcd_clr
  6044 ;;		_lcd_string
  6045 ;;		_lcd_2ndline
  6046 ;;		_delay_ms
  6047 ;;		_lcd_clr_line
  6048 ;;		_lcd_goto
  6049 ;;		_uart_init
  6050 ;;		_beep
  6051 ;;		_skps
  6052 ;;		_forward
  6053 ;;		_backward
  6054 ;;		_left
  6055 ;;		_right
  6056 ;; This function is called by:
  6057 ;;		_main
  6058 ;; This function uses a non-reentrant model
  6059 ;;
  6060                           psect	text1389,local,class=CODE,delta=2,merge=1
  6061                           global __ptext1389
  6062  03BD                     __ptext1389:	;psect for function _SKPS_PScon
  6063                           psect	text1389
  6064                           	file	"PR23.c"
  6065                           	line	1025
  6066                           	global	__size_of_SKPS_PScon
  6067  01FC                     	__size_of_SKPS_PScon	equ	__end_of_SKPS_PScon-_SKPS_PScon
  6068                           	
  6069  03BD                     _SKPS_PScon:	
  6070                           	opt	stack 1
  6071                           ; Regs used in _SKPS_PScon: [allreg]
  6072                           	line	1029
  6073                           	
  6074  03BD                     l3878:	
  6075                           ;PR23.c: 1026: unsigned char up_v, down_v, left_v, right_v;
  6076                           ;PR23.c: 1029: disable_global_int();
  6077  03BD  160A  118A  2434   	fcall	_disable_global_int
              120A  118A         
  6078                           	line	1030
  6079                           ;PR23.c: 1030: stop();
  6080  03C2  160A  118A  2459   	fcall	_stop
              120A  118A         
  6081                           	line	1032
  6082                           	
  6083  03C7                     l3880:	
  6084                           ;PR23.c: 1032: lcd_clr();
  6085  03C7  160A  118A  24C6   	fcall	_lcd_clr
              120A  118A         
  6086                           	line	1033
  6087                           	
  6088  03CC                     l3882:	
  6089                           ;PR23.c: 1033: lcd_string("  Control PR23");
  6090  03CC  30A3               	movlw	low(STR_46|8000h)
  6091  03CD  1283               	bcf	status, 5	;RP0=0, select bank0
  6092  03CE  1303               	bcf	status, 6	;RP1=0, select bank0
  6093  03CF  00A9               	movwf	(?_lcd_string)
  6094  03D0  3082               	movlw	high(STR_46|8000h)
  6095  03D1  00AA               	movwf	((?_lcd_string))+1
  6096  03D2  160A  118A  25EE   	fcall	_lcd_string
              120A  118A         
  6097                           	line	1034
  6098                           	
  6099  03D7                     l3884:	
  6100                           ;PR23.c: 1034: lcd_2ndline();
  6101  03D7  120A  118A  27F9   	fcall	_lcd_2ndline
              120A  118A         
  6102                           	line	1035
  6103                           	
  6104  03DC                     l3886:	
  6105                           ;PR23.c: 1035: lcd_string("   with SKPS");
  6106  03DC  30D0               	movlw	low(STR_47|8000h)
  6107  03DD  1283               	bcf	status, 5	;RP0=0, select bank0
  6108  03DE  1303               	bcf	status, 6	;RP1=0, select bank0
  6109  03DF  00A9               	movwf	(?_lcd_string)
  6110  03E0  3082               	movlw	high(STR_47|8000h)
  6111  03E1  00AA               	movwf	((?_lcd_string))+1
  6112  03E2  160A  118A  25EE   	fcall	_lcd_string
              120A  118A         
  6113                           	line	1036
  6114                           	
  6115  03E7                     l3888:	
  6116                           ;PR23.c: 1036: delay_ms(500);
  6117  03E7  3000               	movlw	0
  6118  03E8  1283               	bcf	status, 5	;RP0=0, select bank0
  6119  03E9  1303               	bcf	status, 6	;RP1=0, select bank0
  6120  03EA  00A3               	movwf	(?_delay_ms+3)
  6121  03EB  3000               	movlw	0
  6122  03EC  00A2               	movwf	(?_delay_ms+2)
  6123  03ED  3001               	movlw	01h
  6124  03EE  00A1               	movwf	(?_delay_ms+1)
  6125  03EF  30F4               	movlw	0F4h
  6126  03F0  00A0               	movwf	(?_delay_ms)
  6127                           
  6128  03F1  160A  118A  26CD   	fcall	_delay_ms
              120A  118A         
  6129                           	line	1037
  6130                           	
  6131  03F6                     l3890:	
  6132                           ;PR23.c: 1037: lcd_clr_line(1);
  6133  03F6  3001               	movlw	(01h)
  6134  03F7  160A  118A  2691   	fcall	_lcd_clr_line
              120A  118A         
  6135                           	line	1038
  6136                           	
  6137  03FC                     l3892:	
  6138                           ;PR23.c: 1038: lcd_goto(0x43);
  6139  03FC  3043               	movlw	(043h)
  6140  03FD  120A  158A  2000   	fcall	_lcd_goto
              120A  118A         
  6141                           	line	1039
  6142                           	
  6143  0402                     l3894:	
  6144                           ;PR23.c: 1039: lcd_string("JP7 to UC");
  6145  0402  3034               	movlw	low(STR_48|8000h)
  6146  0403  1283               	bcf	status, 5	;RP0=0, select bank0
  6147  0404  1303               	bcf	status, 6	;RP1=0, select bank0
  6148  0405  00A9               	movwf	(?_lcd_string)
  6149  0406  3083               	movlw	high(STR_48|8000h)
  6150  0407  00AA               	movwf	((?_lcd_string))+1
  6151  0408  160A  118A  25EE   	fcall	_lcd_string
              120A  118A         
  6152                           	line	1040
  6153                           	
  6154  040D                     l3896:	
  6155                           ;PR23.c: 1040: delay_ms(1000);
  6156  040D  3000               	movlw	0
  6157  040E  1283               	bcf	status, 5	;RP0=0, select bank0
  6158  040F  1303               	bcf	status, 6	;RP1=0, select bank0
  6159  0410  00A3               	movwf	(?_delay_ms+3)
  6160  0411  3000               	movlw	0
  6161  0412  00A2               	movwf	(?_delay_ms+2)
  6162  0413  3003               	movlw	03h
  6163  0414  00A1               	movwf	(?_delay_ms+1)
  6164  0415  30E8               	movlw	0E8h
  6165  0416  00A0               	movwf	(?_delay_ms)
  6166                           
  6167  0417  160A  118A  26CD   	fcall	_delay_ms
              120A  118A         
  6168                           	line	1041
  6169                           	
  6170  041C                     l3898:	
  6171                           ;PR23.c: 1041: uart_init();
  6172  041C  120A  118A  20E2   	fcall	_uart_init
              120A  118A         
  6173                           	line	1042
  6174                           	
  6175  0421                     l3900:	
  6176                           ;PR23.c: 1042: beep(2);
  6177  0421  3002               	movlw	(02h)
  6178  0422  160A  118A  25BF   	fcall	_beep
              120A  118A         
  6179                           	line	1044
  6180                           	
  6181  0427                     l3902:	
  6182                           ;PR23.c: 1044: lcd_clr_line(1);
  6183  0427  3001               	movlw	(01h)
  6184  0428  160A  118A  2691   	fcall	_lcd_clr_line
              120A  118A         
  6185                           	line	1045
  6186                           	
  6187  042D                     l3904:	
  6188                           ;PR23.c: 1045: lcd_goto(0x45);
  6189  042D  3045               	movlw	(045h)
  6190  042E  120A  158A  2000   	fcall	_lcd_goto
              120A  118A         
  6191                           	line	1046
  6192                           	
  6193  0433                     l3906:	
  6194                           ;PR23.c: 1046: lcd_string("Ready!");
  6195  0433  308C               	movlw	low(STR_49|8000h)
  6196  0434  1283               	bcf	status, 5	;RP0=0, select bank0
  6197  0435  1303               	bcf	status, 6	;RP1=0, select bank0
  6198  0436  00A9               	movwf	(?_lcd_string)
  6199  0437  3083               	movlw	high(STR_49|8000h)
  6200  0438  00AA               	movwf	((?_lcd_string))+1
  6201  0439  160A  118A  25EE   	fcall	_lcd_string
              120A  118A         
  6202  043E  2C3F               	goto	l3908
  6203                           	line	1047
  6204                           ;PR23.c: 1047: while(1)
  6205                           	
  6206  043F                     l463:	
  6207                           	line	1050
  6208                           	
  6209  043F                     l3908:	
  6210                           ;PR23.c: 1048: {
  6211                           ;PR23.c: 1050: if((skps(10)== 0) || (skps(8)== 0) || (skps(11)== 0) || (skps(9)== 0))RE2
                                  = 1;
  6212  043F  300A               	movlw	(0Ah)
  6213  0440  160A  118A  248D   	fcall	_skps
              120A  118A         
  6214  0445  3A00               	xorlw	0
  6215  0446  1903               	skipnz
  6216  0447  2C49               	goto	u3871
  6217  0448  2C4A               	goto	u3870
  6218  0449                     u3871:
  6219  0449  2C6B               	goto	l466
  6220  044A                     u3870:
  6221                           	
  6222  044A                     l3910:	
  6223  044A  3008               	movlw	(08h)
  6224  044B  160A  118A  248D   	fcall	_skps
              120A  118A         
  6225  0450  3A00               	xorlw	0
  6226  0451  1903               	skipnz
  6227  0452  2C54               	goto	u3881
  6228  0453  2C55               	goto	u3880
  6229  0454                     u3881:
  6230  0454  2C6B               	goto	l466
  6231  0455                     u3880:
  6232                           	
  6233  0455                     l3912:	
  6234  0455  300B               	movlw	(0Bh)
  6235  0456  160A  118A  248D   	fcall	_skps
              120A  118A         
  6236  045B  3A00               	xorlw	0
  6237  045C  1903               	skipnz
  6238  045D  2C5F               	goto	u3891
  6239  045E  2C60               	goto	u3890
  6240  045F                     u3891:
  6241  045F  2C6B               	goto	l466
  6242  0460                     u3890:
  6243                           	
  6244  0460                     l3914:	
  6245  0460  3009               	movlw	(09h)
  6246  0461  160A  118A  248D   	fcall	_skps
              120A  118A         
  6247  0466  3800               	iorlw	0
  6248  0467  1D03               	skipz
  6249  0468  2C6A               	goto	u3901
  6250  0469  2C6B               	goto	u3900
  6251  046A                     u3901:
  6252  046A  2C6F               	goto	l464
  6253  046B                     u3900:
  6254                           	
  6255  046B                     l466:	
  6256  046B  1283               	bcf	status, 5	;RP0=0, select bank0
  6257  046C  1303               	bcf	status, 6	;RP1=0, select bank0
  6258  046D  1509               	bsf	(74/8),(74)&7	;volatile
  6259  046E  2C73               	goto	l3916
  6260                           	line	1051
  6261                           	
  6262  046F                     l464:	
  6263                           ;PR23.c: 1051: else RE2 = 0;
  6264  046F  1283               	bcf	status, 5	;RP0=0, select bank0
  6265  0470  1303               	bcf	status, 6	;RP1=0, select bank0
  6266  0471  1109               	bcf	(74/8),(74)&7	;volatile
  6267  0472  2C73               	goto	l3916
  6268                           	
  6269  0473                     l467:	
  6270                           	line	1054
  6271                           	
  6272  0473                     l3916:	
  6273                           ;PR23.c: 1054: up_v = skps(24);
  6274  0473  3018               	movlw	(018h)
  6275  0474  160A  118A  248D   	fcall	_skps
              120A  118A         
  6276  0479  1283               	bcf	status, 5	;RP0=0, select bank0
  6277  047A  1303               	bcf	status, 6	;RP1=0, select bank0
  6278  047B  00AC               	movwf	(??_SKPS_PScon+0)+0
  6279  047C  082C               	movf	(??_SKPS_PScon+0)+0,w
  6280  047D  00AD               	movwf	(SKPS_PScon@up_v)
  6281                           	line	1055
  6282                           ;PR23.c: 1055: down_v = skps(25);
  6283  047E  3019               	movlw	(019h)
  6284  047F  160A  118A  248D   	fcall	_skps
              120A  118A         
  6285  0484  1283               	bcf	status, 5	;RP0=0, select bank0
  6286  0485  1303               	bcf	status, 6	;RP1=0, select bank0
  6287  0486  00AC               	movwf	(??_SKPS_PScon+0)+0
  6288  0487  082C               	movf	(??_SKPS_PScon+0)+0,w
  6289  0488  00AE               	movwf	(SKPS_PScon@down_v)
  6290                           	line	1056
  6291                           ;PR23.c: 1056: left_v = skps(22);
  6292  0489  3016               	movlw	(016h)
  6293  048A  160A  118A  248D   	fcall	_skps
              120A  118A         
  6294  048F  1283               	bcf	status, 5	;RP0=0, select bank0
  6295  0490  1303               	bcf	status, 6	;RP1=0, select bank0
  6296  0491  00AC               	movwf	(??_SKPS_PScon+0)+0
  6297  0492  082C               	movf	(??_SKPS_PScon+0)+0,w
  6298  0493  00AF               	movwf	(SKPS_PScon@left_v)
  6299                           	line	1057
  6300                           ;PR23.c: 1057: right_v = skps(23);
  6301  0494  3017               	movlw	(017h)
  6302  0495  160A  118A  248D   	fcall	_skps
              120A  118A         
  6303  049A  1283               	bcf	status, 5	;RP0=0, select bank0
  6304  049B  1303               	bcf	status, 6	;RP1=0, select bank0
  6305  049C  00AC               	movwf	(??_SKPS_PScon+0)+0
  6306  049D  082C               	movf	(??_SKPS_PScon+0)+0,w
  6307  049E  00B0               	movwf	(SKPS_PScon@right_v)
  6308                           	line	1060
  6309                           ;PR23.c: 1060: if(skps(4)==0)
  6310  049F  3004               	movlw	(04h)
  6311  04A0  160A  118A  248D   	fcall	_skps
              120A  118A         
  6312  04A5  3800               	iorlw	0
  6313  04A6  1D03               	skipz
  6314  04A7  2CA9               	goto	u3911
  6315  04A8  2CAA               	goto	u3910
  6316  04A9                     u3911:
  6317  04A9  2CB6               	goto	l3924
  6318  04AA                     u3910:
  6319                           	line	1062
  6320                           	
  6321  04AA                     l3918:	
  6322                           ;PR23.c: 1061: {
  6323                           ;PR23.c: 1062: forward();
  6324  04AA  160A  118A  2452   	fcall	_forward
              120A  118A         
  6325                           	line	1063
  6326                           	
  6327  04AF                     l3920:	
  6328                           ;PR23.c: 1063: CCPR1L=230;
  6329  04AF  30E6               	movlw	(0E6h)
  6330  04B0  1283               	bcf	status, 5	;RP0=0, select bank0
  6331  04B1  1303               	bcf	status, 6	;RP1=0, select bank0
  6332  04B2  0095               	movwf	(21)	;volatile
  6333                           	line	1064
  6334                           	
  6335  04B3                     l3922:	
  6336                           ;PR23.c: 1064: CCPR2L=230;
  6337  04B3  30E6               	movlw	(0E6h)
  6338  04B4  009B               	movwf	(27)	;volatile
  6339                           	line	1065
  6340                           ;PR23.c: 1065: }
  6341  04B5  2C3F               	goto	l3908
  6342                           	line	1066
  6343                           	
  6344  04B6                     l468:	
  6345                           	
  6346  04B6                     l3924:	
  6347                           ;PR23.c: 1066: else if(skps(6)==0)
  6348  04B6  3006               	movlw	(06h)
  6349  04B7  160A  118A  248D   	fcall	_skps
              120A  118A         
  6350  04BC  3800               	iorlw	0
  6351  04BD  1D03               	skipz
  6352  04BE  2CC0               	goto	u3921
  6353  04BF  2CC1               	goto	u3920
  6354  04C0                     u3921:
  6355  04C0  2CCD               	goto	l3932
  6356  04C1                     u3920:
  6357                           	line	1068
  6358                           	
  6359  04C1                     l3926:	
  6360                           ;PR23.c: 1067: {
  6361                           ;PR23.c: 1068: backward();
  6362  04C1  160A  118A  244B   	fcall	_backward
              120A  118A         
  6363                           	line	1069
  6364                           	
  6365  04C6                     l3928:	
  6366                           ;PR23.c: 1069: CCPR1L=230;
  6367  04C6  30E6               	movlw	(0E6h)
  6368  04C7  1283               	bcf	status, 5	;RP0=0, select bank0
  6369  04C8  1303               	bcf	status, 6	;RP1=0, select bank0
  6370  04C9  0095               	movwf	(21)	;volatile
  6371                           	line	1070
  6372                           	
  6373  04CA                     l3930:	
  6374                           ;PR23.c: 1070: CCPR2L=230;
  6375  04CA  30E6               	movlw	(0E6h)
  6376  04CB  009B               	movwf	(27)	;volatile
  6377                           	line	1071
  6378                           ;PR23.c: 1071: }
  6379  04CC  2C3F               	goto	l3908
  6380                           	line	1072
  6381                           	
  6382  04CD                     l470:	
  6383                           	
  6384  04CD                     l3932:	
  6385                           ;PR23.c: 1072: else if(skps(7)==0)
  6386  04CD  3007               	movlw	(07h)
  6387  04CE  160A  118A  248D   	fcall	_skps
              120A  118A         
  6388  04D3  3800               	iorlw	0
  6389  04D4  1D03               	skipz
  6390  04D5  2CD7               	goto	u3931
  6391  04D6  2CD8               	goto	u3930
  6392  04D7                     u3931:
  6393  04D7  2CE4               	goto	l3940
  6394  04D8                     u3930:
  6395                           	line	1074
  6396                           	
  6397  04D8                     l3934:	
  6398                           ;PR23.c: 1073: {
  6399                           ;PR23.c: 1074: left();
  6400  04D8  160A  118A  243D   	fcall	_left
              120A  118A         
  6401                           	line	1075
  6402                           	
  6403  04DD                     l3936:	
  6404                           ;PR23.c: 1075: CCPR1L=230;
  6405  04DD  30E6               	movlw	(0E6h)
  6406  04DE  1283               	bcf	status, 5	;RP0=0, select bank0
  6407  04DF  1303               	bcf	status, 6	;RP1=0, select bank0
  6408  04E0  0095               	movwf	(21)	;volatile
  6409                           	line	1076
  6410                           	
  6411  04E1                     l3938:	
  6412                           ;PR23.c: 1076: CCPR2L=230;
  6413  04E1  30E6               	movlw	(0E6h)
  6414  04E2  009B               	movwf	(27)	;volatile
  6415                           	line	1077
  6416                           ;PR23.c: 1077: }
  6417  04E3  2C3F               	goto	l3908
  6418                           	line	1078
  6419                           	
  6420  04E4                     l472:	
  6421                           	
  6422  04E4                     l3940:	
  6423                           ;PR23.c: 1078: else if(skps(5)==0)
  6424  04E4  3005               	movlw	(05h)
  6425  04E5  160A  118A  248D   	fcall	_skps
              120A  118A         
  6426  04EA  3800               	iorlw	0
  6427  04EB  1D03               	skipz
  6428  04EC  2CEE               	goto	u3941
  6429  04ED  2CEF               	goto	u3940
  6430  04EE                     u3941:
  6431  04EE  2CFB               	goto	l3948
  6432  04EF                     u3940:
  6433                           	line	1080
  6434                           	
  6435  04EF                     l3942:	
  6436                           ;PR23.c: 1079: {
  6437                           ;PR23.c: 1080: right();
  6438  04EF  160A  118A  2444   	fcall	_right
              120A  118A         
  6439                           	line	1081
  6440                           	
  6441  04F4                     l3944:	
  6442                           ;PR23.c: 1081: CCPR1L=230;
  6443  04F4  30E6               	movlw	(0E6h)
  6444  04F5  1283               	bcf	status, 5	;RP0=0, select bank0
  6445  04F6  1303               	bcf	status, 6	;RP1=0, select bank0
  6446  04F7  0095               	movwf	(21)	;volatile
  6447                           	line	1082
  6448                           	
  6449  04F8                     l3946:	
  6450                           ;PR23.c: 1082: CCPR2L=230;
  6451  04F8  30E6               	movlw	(0E6h)
  6452  04F9  009B               	movwf	(27)	;volatile
  6453                           	line	1083
  6454                           ;PR23.c: 1083: }
  6455  04FA  2C3F               	goto	l3908
  6456                           	line	1086
  6457                           	
  6458  04FB                     l474:	
  6459                           	
  6460  04FB                     l3948:	
  6461                           ;PR23.c: 1086: else if(up_v > 0)
  6462  04FB  1283               	bcf	status, 5	;RP0=0, select bank0
  6463  04FC  1303               	bcf	status, 6	;RP1=0, select bank0
  6464  04FD  082D               	movf	(SKPS_PScon@up_v),w
  6465  04FE  1D03               	skipz
  6466  04FF  2D01               	goto	u3950
  6467  0500  2D3F               	goto	l3974
  6468  0501                     u3950:
  6469                           	line	1088
  6470                           	
  6471  0501                     l3950:	
  6472                           ;PR23.c: 1087: {
  6473                           ;PR23.c: 1088: forward();
  6474  0501  160A  118A  2452   	fcall	_forward
              120A  118A         
  6475                           	line	1089
  6476                           	
  6477  0506                     l3952:	
  6478                           ;PR23.c: 1089: if(left_v > 0)
  6479  0506  1283               	bcf	status, 5	;RP0=0, select bank0
  6480  0507  1303               	bcf	status, 6	;RP1=0, select bank0
  6481  0508  082F               	movf	(SKPS_PScon@left_v),w
  6482  0509  1D03               	skipz
  6483  050A  2D0C               	goto	u3960
  6484  050B  2D1F               	goto	l3962
  6485  050C                     u3960:
  6486                           	line	1091
  6487                           	
  6488  050C                     l3954:	
  6489                           ;PR23.c: 1090: {
  6490                           ;PR23.c: 1091: if(up_v > left_v) CCPR1L = up_v - left_v + 140;
  6491  050C  082D               	movf	(SKPS_PScon@up_v),w
  6492  050D  022F               	subwf	(SKPS_PScon@left_v),w
  6493  050E  1803               	skipnc
  6494  050F  2D11               	goto	u3971
  6495  0510  2D12               	goto	u3970
  6496  0511                     u3971:
  6497  0511  2D18               	goto	l3958
  6498  0512                     u3970:
  6499                           	
  6500  0512                     l3956:	
  6501  0512  032F               	decf	(SKPS_PScon@left_v),w
  6502  0513  3AFF               	xorlw	0ffh
  6503  0514  072D               	addwf	(SKPS_PScon@up_v),w
  6504  0515  3E8C               	addlw	08Ch
  6505  0516  0095               	movwf	(21)	;volatile
  6506  0517  2D1B               	goto	l3960
  6507                           	line	1092
  6508                           	
  6509  0518                     l478:	
  6510                           	
  6511  0518                     l3958:	
  6512                           ;PR23.c: 1092: else CCPR1L = 140;
  6513  0518  308C               	movlw	(08Ch)
  6514  0519  0095               	movwf	(21)	;volatile
  6515  051A  2D1B               	goto	l3960
  6516                           	
  6517  051B                     l479:	
  6518                           	line	1093
  6519                           	
  6520  051B                     l3960:	
  6521                           ;PR23.c: 1093: CCPR2L = up_v + 140;
  6522  051B  082D               	movf	(SKPS_PScon@up_v),w
  6523  051C  3E8C               	addlw	08Ch
  6524  051D  009B               	movwf	(27)	;volatile
  6525                           	line	1094
  6526                           ;PR23.c: 1094: }
  6527  051E  2C3F               	goto	l3908
  6528                           	line	1095
  6529                           	
  6530  051F                     l477:	
  6531                           	
  6532  051F                     l3962:	
  6533                           ;PR23.c: 1095: else if(right_v > 0)
  6534  051F  0830               	movf	(SKPS_PScon@right_v),w
  6535  0520  1D03               	skipz
  6536  0521  2D23               	goto	u3980
  6537  0522  2D36               	goto	l3972
  6538  0523                     u3980:
  6539                           	line	1097
  6540                           	
  6541  0523                     l3964:	
  6542                           ;PR23.c: 1096: {
  6543                           ;PR23.c: 1097: if(up_v > right_v) CCPR2L = up_v - right_v + 140;
  6544  0523  082D               	movf	(SKPS_PScon@up_v),w
  6545  0524  0230               	subwf	(SKPS_PScon@right_v),w
  6546  0525  1803               	skipnc
  6547  0526  2D28               	goto	u3991
  6548  0527  2D29               	goto	u3990
  6549  0528                     u3991:
  6550  0528  2D2F               	goto	l3968
  6551  0529                     u3990:
  6552                           	
  6553  0529                     l3966:	
  6554  0529  0330               	decf	(SKPS_PScon@right_v),w
  6555  052A  3AFF               	xorlw	0ffh
  6556  052B  072D               	addwf	(SKPS_PScon@up_v),w
  6557  052C  3E8C               	addlw	08Ch
  6558  052D  009B               	movwf	(27)	;volatile
  6559  052E  2D32               	goto	l3970
  6560                           	line	1098
  6561                           	
  6562  052F                     l482:	
  6563                           	
  6564  052F                     l3968:	
  6565                           ;PR23.c: 1098: else CCPR2L = 140;
  6566  052F  308C               	movlw	(08Ch)
  6567  0530  009B               	movwf	(27)	;volatile
  6568  0531  2D32               	goto	l3970
  6569                           	
  6570  0532                     l483:	
  6571                           	line	1099
  6572                           	
  6573  0532                     l3970:	
  6574                           ;PR23.c: 1099: CCPR1L = up_v + 140;
  6575  0532  082D               	movf	(SKPS_PScon@up_v),w
  6576  0533  3E8C               	addlw	08Ch
  6577  0534  0095               	movwf	(21)	;volatile
  6578                           	line	1100
  6579                           ;PR23.c: 1100: }
  6580  0535  2C3F               	goto	l3908
  6581                           	line	1101
  6582                           	
  6583  0536                     l481:	
  6584                           	line	1103
  6585                           	
  6586  0536                     l3972:	
  6587                           ;PR23.c: 1101: else
  6588                           ;PR23.c: 1102: {
  6589                           ;PR23.c: 1103: CCPR1L = up_v + 140;
  6590  0536  082D               	movf	(SKPS_PScon@up_v),w
  6591  0537  3E8C               	addlw	08Ch
  6592  0538  0095               	movwf	(21)	;volatile
  6593                           	line	1104
  6594                           ;PR23.c: 1104: CCPR2L = up_v + 140;
  6595  0539  082D               	movf	(SKPS_PScon@up_v),w
  6596  053A  3E8C               	addlw	08Ch
  6597  053B  009B               	movwf	(27)	;volatile
  6598  053C  2C3F               	goto	l3908
  6599                           	line	1105
  6600                           	
  6601  053D                     l484:	
  6602  053D  2C3F               	goto	l3908
  6603                           	
  6604  053E                     l480:	
  6605                           	line	1106
  6606                           ;PR23.c: 1105: }
  6607                           ;PR23.c: 1106: }
  6608  053E  2C3F               	goto	l3908
  6609                           	line	1107
  6610                           	
  6611  053F                     l476:	
  6612                           	
  6613  053F                     l3974:	
  6614                           ;PR23.c: 1107: else if(down_v > 0)
  6615  053F  082E               	movf	(SKPS_PScon@down_v),w
  6616  0540  1D03               	skipz
  6617  0541  2D43               	goto	u4000
  6618  0542  2D81               	goto	l4000
  6619  0543                     u4000:
  6620                           	line	1109
  6621                           	
  6622  0543                     l3976:	
  6623                           ;PR23.c: 1108: {
  6624                           ;PR23.c: 1109: backward();
  6625  0543  160A  118A  244B   	fcall	_backward
              120A  118A         
  6626                           	line	1110
  6627                           	
  6628  0548                     l3978:	
  6629                           ;PR23.c: 1110: if(left_v > 0)
  6630  0548  1283               	bcf	status, 5	;RP0=0, select bank0
  6631  0549  1303               	bcf	status, 6	;RP1=0, select bank0
  6632  054A  082F               	movf	(SKPS_PScon@left_v),w
  6633  054B  1D03               	skipz
  6634  054C  2D4E               	goto	u4010
  6635  054D  2D61               	goto	l3988
  6636  054E                     u4010:
  6637                           	line	1112
  6638                           	
  6639  054E                     l3980:	
  6640                           ;PR23.c: 1111: {
  6641                           ;PR23.c: 1112: if(down_v > left_v) CCPR2L = down_v - left_v + 140;
  6642  054E  082E               	movf	(SKPS_PScon@down_v),w
  6643  054F  022F               	subwf	(SKPS_PScon@left_v),w
  6644  0550  1803               	skipnc
  6645  0551  2D53               	goto	u4021
  6646  0552  2D54               	goto	u4020
  6647  0553                     u4021:
  6648  0553  2D5A               	goto	l3984
  6649  0554                     u4020:
  6650                           	
  6651  0554                     l3982:	
  6652  0554  032F               	decf	(SKPS_PScon@left_v),w
  6653  0555  3AFF               	xorlw	0ffh
  6654  0556  072E               	addwf	(SKPS_PScon@down_v),w
  6655  0557  3E8C               	addlw	08Ch
  6656  0558  009B               	movwf	(27)	;volatile
  6657  0559  2D5D               	goto	l3986
  6658                           	line	1113
  6659                           	
  6660  055A                     l488:	
  6661                           	
  6662  055A                     l3984:	
  6663                           ;PR23.c: 1113: else CCPR2L = 140;
  6664  055A  308C               	movlw	(08Ch)
  6665  055B  009B               	movwf	(27)	;volatile
  6666  055C  2D5D               	goto	l3986
  6667                           	
  6668  055D                     l489:	
  6669                           	line	1114
  6670                           	
  6671  055D                     l3986:	
  6672                           ;PR23.c: 1114: CCPR1L = down_v + 140;
  6673  055D  082E               	movf	(SKPS_PScon@down_v),w
  6674  055E  3E8C               	addlw	08Ch
  6675  055F  0095               	movwf	(21)	;volatile
  6676                           	line	1115
  6677                           ;PR23.c: 1115: }
  6678  0560  2C3F               	goto	l3908
  6679                           	line	1116
  6680                           	
  6681  0561                     l487:	
  6682                           	
  6683  0561                     l3988:	
  6684                           ;PR23.c: 1116: else if(right_v > 0)
  6685  0561  0830               	movf	(SKPS_PScon@right_v),w
  6686  0562  1D03               	skipz
  6687  0563  2D65               	goto	u4030
  6688  0564  2D78               	goto	l3998
  6689  0565                     u4030:
  6690                           	line	1118
  6691                           	
  6692  0565                     l3990:	
  6693                           ;PR23.c: 1117: {
  6694                           ;PR23.c: 1118: if(down_v > right_v) CCPR1L = down_v - right_v + 140;
  6695  0565  082E               	movf	(SKPS_PScon@down_v),w
  6696  0566  0230               	subwf	(SKPS_PScon@right_v),w
  6697  0567  1803               	skipnc
  6698  0568  2D6A               	goto	u4041
  6699  0569  2D6B               	goto	u4040
  6700  056A                     u4041:
  6701  056A  2D71               	goto	l3994
  6702  056B                     u4040:
  6703                           	
  6704  056B                     l3992:	
  6705  056B  0330               	decf	(SKPS_PScon@right_v),w
  6706  056C  3AFF               	xorlw	0ffh
  6707  056D  072E               	addwf	(SKPS_PScon@down_v),w
  6708  056E  3E8C               	addlw	08Ch
  6709  056F  0095               	movwf	(21)	;volatile
  6710  0570  2D74               	goto	l3996
  6711                           	line	1119
  6712                           	
  6713  0571                     l492:	
  6714                           	
  6715  0571                     l3994:	
  6716                           ;PR23.c: 1119: else CCPR1L = 140;
  6717  0571  308C               	movlw	(08Ch)
  6718  0572  0095               	movwf	(21)	;volatile
  6719  0573  2D74               	goto	l3996
  6720                           	
  6721  0574                     l493:	
  6722                           	line	1120
  6723                           	
  6724  0574                     l3996:	
  6725                           ;PR23.c: 1120: CCPR2L = down_v + 140;
  6726  0574  082E               	movf	(SKPS_PScon@down_v),w
  6727  0575  3E8C               	addlw	08Ch
  6728  0576  009B               	movwf	(27)	;volatile
  6729                           	line	1121
  6730                           ;PR23.c: 1121: }
  6731  0577  2C3F               	goto	l3908
  6732                           	line	1122
  6733                           	
  6734  0578                     l491:	
  6735                           	line	1124
  6736                           	
  6737  0578                     l3998:	
  6738                           ;PR23.c: 1122: else
  6739                           ;PR23.c: 1123: {
  6740                           ;PR23.c: 1124: CCPR1L = down_v + 140;
  6741  0578  082E               	movf	(SKPS_PScon@down_v),w
  6742  0579  3E8C               	addlw	08Ch
  6743  057A  0095               	movwf	(21)	;volatile
  6744                           	line	1125
  6745                           ;PR23.c: 1125: CCPR2L = down_v + 140;
  6746  057B  082E               	movf	(SKPS_PScon@down_v),w
  6747  057C  3E8C               	addlw	08Ch
  6748  057D  009B               	movwf	(27)	;volatile
  6749  057E  2C3F               	goto	l3908
  6750                           	line	1126
  6751                           	
  6752  057F                     l494:	
  6753  057F  2C3F               	goto	l3908
  6754                           	
  6755  0580                     l490:	
  6756                           	line	1127
  6757                           ;PR23.c: 1126: }
  6758                           ;PR23.c: 1127: }
  6759  0580  2C3F               	goto	l3908
  6760                           	line	1128
  6761                           	
  6762  0581                     l486:	
  6763                           	
  6764  0581                     l4000:	
  6765                           ;PR23.c: 1128: else if(left_v > 0)
  6766  0581  082F               	movf	(SKPS_PScon@left_v),w
  6767  0582  1D03               	skipz
  6768  0583  2D85               	goto	u4050
  6769  0584  2D93               	goto	l4008
  6770  0585                     u4050:
  6771                           	line	1130
  6772                           	
  6773  0585                     l4002:	
  6774                           ;PR23.c: 1129: {
  6775                           ;PR23.c: 1130: left();
  6776  0585  160A  118A  243D   	fcall	_left
              120A  118A         
  6777                           	line	1131
  6778                           	
  6779  058A                     l4004:	
  6780                           ;PR23.c: 1131: CCPR1L = left_v + 120;
  6781  058A  1283               	bcf	status, 5	;RP0=0, select bank0
  6782  058B  1303               	bcf	status, 6	;RP1=0, select bank0
  6783  058C  082F               	movf	(SKPS_PScon@left_v),w
  6784  058D  3E78               	addlw	078h
  6785  058E  0095               	movwf	(21)	;volatile
  6786                           	line	1132
  6787                           	
  6788  058F                     l4006:	
  6789                           ;PR23.c: 1132: CCPR2L = left_v + 120;
  6790  058F  082F               	movf	(SKPS_PScon@left_v),w
  6791  0590  3E78               	addlw	078h
  6792  0591  009B               	movwf	(27)	;volatile
  6793                           	line	1133
  6794                           ;PR23.c: 1133: }
  6795  0592  2C3F               	goto	l3908
  6796                           	line	1134
  6797                           	
  6798  0593                     l496:	
  6799                           	
  6800  0593                     l4008:	
  6801                           ;PR23.c: 1134: else if(right_v > 0)
  6802  0593  0830               	movf	(SKPS_PScon@right_v),w
  6803  0594  1D03               	skipz
  6804  0595  2D97               	goto	u4060
  6805  0596  2DA5               	goto	l4016
  6806  0597                     u4060:
  6807                           	line	1136
  6808                           	
  6809  0597                     l4010:	
  6810                           ;PR23.c: 1135: {
  6811                           ;PR23.c: 1136: right();
  6812  0597  160A  118A  2444   	fcall	_right
              120A  118A         
  6813                           	line	1137
  6814                           	
  6815  059C                     l4012:	
  6816                           ;PR23.c: 1137: CCPR1L = right_v + 120;
  6817  059C  1283               	bcf	status, 5	;RP0=0, select bank0
  6818  059D  1303               	bcf	status, 6	;RP1=0, select bank0
  6819  059E  0830               	movf	(SKPS_PScon@right_v),w
  6820  059F  3E78               	addlw	078h
  6821  05A0  0095               	movwf	(21)	;volatile
  6822                           	line	1138
  6823                           	
  6824  05A1                     l4014:	
  6825                           ;PR23.c: 1138: CCPR2L = right_v + 120;
  6826  05A1  0830               	movf	(SKPS_PScon@right_v),w
  6827  05A2  3E78               	addlw	078h
  6828  05A3  009B               	movwf	(27)	;volatile
  6829                           	line	1139
  6830                           ;PR23.c: 1139: }
  6831  05A4  2C3F               	goto	l3908
  6832                           	line	1140
  6833                           	
  6834  05A5                     l498:	
  6835                           	line	1142
  6836                           	
  6837  05A5                     l4016:	
  6838                           ;PR23.c: 1140: else
  6839                           ;PR23.c: 1141: {
  6840                           ;PR23.c: 1142: stop();
  6841  05A5  160A  118A  2459   	fcall	_stop
              120A  118A         
  6842                           	line	1143
  6843                           	
  6844  05AA                     l4018:	
  6845                           ;PR23.c: 1143: CCPR1L = 0;
  6846  05AA  1283               	bcf	status, 5	;RP0=0, select bank0
  6847  05AB  1303               	bcf	status, 6	;RP1=0, select bank0
  6848  05AC  0195               	clrf	(21)	;volatile
  6849                           	line	1144
  6850                           	
  6851  05AD                     l4020:	
  6852                           ;PR23.c: 1144: CCPR2L = 0;
  6853  05AD  019B               	clrf	(27)	;volatile
  6854  05AE  2C3F               	goto	l3908
  6855                           	line	1145
  6856                           	
  6857  05AF                     l499:	
  6858  05AF  2C3F               	goto	l3908
  6859                           	
  6860  05B0                     l497:	
  6861  05B0  2C3F               	goto	l3908
  6862                           	
  6863  05B1                     l495:	
  6864  05B1  2C3F               	goto	l3908
  6865                           	
  6866  05B2                     l485:	
  6867  05B2  2C3F               	goto	l3908
  6868                           	
  6869  05B3                     l475:	
  6870  05B3  2C3F               	goto	l3908
  6871                           	
  6872  05B4                     l473:	
  6873  05B4  2C3F               	goto	l3908
  6874                           	
  6875  05B5                     l471:	
  6876  05B5  2C3F               	goto	l3908
  6877                           	
  6878  05B6                     l469:	
  6879  05B6  2C3F               	goto	l3908
  6880                           	line	1146
  6881                           	
  6882  05B7                     l500:	
  6883                           	line	1047
  6884  05B7  2C3F               	goto	l3908
  6885                           	
  6886  05B8                     l501:	
  6887                           	line	1147
  6888                           	
  6889  05B8                     l502:	
  6890  05B8  0008               	return
  6891                           	opt stack 0
  6892                           GLOBAL	__end_of_SKPS_PScon
  6893  05B9                     	__end_of_SKPS_PScon:
  6894                           	signat	_SKPS_PScon,88
  6895                           	global	_beep
  6896                           
  6897 ;; *************** function _beep *****************
  6898 ;; Defined at:
  6899 ;;		line 319 in file "PR23.c"
  6900 ;; Parameters:    Size  Location     Type
  6901 ;;  count           1    wreg     unsigned char 
  6902 ;; Auto vars:     Size  Location     Type
  6903 ;;  count           1    8[BANK0 ] unsigned char 
  6904 ;; Return value:  Size  Location     Type
  6905 ;;		None               void
  6906 ;; Registers used:
  6907 ;;		wreg, status,2, status,0, pclath, cstack
  6908 ;; Tracked objects:
  6909 ;;		On entry : 0/0
  6910 ;;		On exit  : 0/0
  6911 ;;		Unchanged: 0/0
  6912 ;; Data sizes:     COMMON   BANK0   BANK1   BANK3   BANK2
  6913 ;;      Params:         0       0       0       0       0
  6914 ;;      Locals:         0       1       0       0       0
  6915 ;;      Temps:          0       0       0       0       0
  6916 ;;      Totals:         0       1       0       0       0
  6917 ;;Total ram usage:        1 bytes
  6918 ;; Hardware stack levels used:    1
  6919 ;; Hardware stack levels required when called:    2
  6920 ;; This function calls:
  6921 ;;		_delay_ms
  6922 ;; This function is called by:
  6923 ;;		_main
  6924 ;;		_ultrasonic
  6925 ;;		_wireless_xbee
  6926 ;;		_SKPS_PScon
  6927 ;; This function uses a non-reentrant model
  6928 ;;
  6929                           psect	text1390,local,class=CODE,delta=2,merge=1
  6930                           global __ptext1390
  6931  15BF                     __ptext1390:	;psect for function _beep
  6932                           psect	text1390
  6933                           	file	"PR23.c"
  6934                           	line	319
  6935                           	global	__size_of_beep
  6936  002F                     	__size_of_beep	equ	__end_of_beep-_beep
  6937                           	
  6938  15BF                     _beep:	
  6939                           	opt	stack 4
  6940                           ; Regs used in _beep: [wreg+status,2+status,0+pclath+cstack]
  6941                           ;beep@count stored from wreg
  6942  15BF  1283               	bcf	status, 5	;RP0=0, select bank0
  6943  15C0  1303               	bcf	status, 6	;RP1=0, select bank0
  6944  15C1  00A8               	movwf	(beep@count)
  6945                           	line	320
  6946                           	
  6947  15C2                     l3376:	
  6948                           ;PR23.c: 320: while(count-- > 0)
  6949  15C2  2DE2               	goto	l3382
  6950                           	
  6951  15C3                     l244:	
  6952                           	line	322
  6953                           ;PR23.c: 321: {
  6954                           ;PR23.c: 322: RE2 = 1;
  6955  15C3  1509               	bsf	(74/8),(74)&7	;volatile
  6956                           	line	323
  6957                           	
  6958  15C4                     l3378:	
  6959                           ;PR23.c: 323: delay_ms(45);
  6960  15C4  3000               	movlw	0
  6961  15C5  00A3               	movwf	(?_delay_ms+3)
  6962  15C6  3000               	movlw	0
  6963  15C7  00A2               	movwf	(?_delay_ms+2)
  6964  15C8  3000               	movlw	0
  6965  15C9  00A1               	movwf	(?_delay_ms+1)
  6966  15CA  302D               	movlw	02Dh
  6967  15CB  00A0               	movwf	(?_delay_ms)
  6968                           
  6969  15CC  160A  118A  26CD   	fcall	_delay_ms
              160A  118A         
  6970                           	line	324
  6971                           	
  6972  15D1                     l3380:	
  6973                           ;PR23.c: 324: RE2 = 0;
  6974  15D1  1283               	bcf	status, 5	;RP0=0, select bank0
  6975  15D2  1303               	bcf	status, 6	;RP1=0, select bank0
  6976  15D3  1109               	bcf	(74/8),(74)&7	;volatile
  6977                           	line	325
  6978                           ;PR23.c: 325: delay_ms(30);
  6979  15D4  3000               	movlw	0
  6980  15D5  00A3               	movwf	(?_delay_ms+3)
  6981  15D6  3000               	movlw	0
  6982  15D7  00A2               	movwf	(?_delay_ms+2)
  6983  15D8  3000               	movlw	0
  6984  15D9  00A1               	movwf	(?_delay_ms+1)
  6985  15DA  301E               	movlw	01Eh
  6986  15DB  00A0               	movwf	(?_delay_ms)
  6987                           
  6988  15DC  160A  118A  26CD   	fcall	_delay_ms
              160A  118A         
  6989  15E1  2DE2               	goto	l3382
  6990                           	line	326
  6991                           	
  6992  15E2                     l243:	
  6993                           	line	320
  6994                           	
  6995  15E2                     l3382:	
  6996  15E2  3001               	movlw	low(01h)
  6997  15E3  1283               	bcf	status, 5	;RP0=0, select bank0
  6998  15E4  1303               	bcf	status, 6	;RP1=0, select bank0
  6999  15E5  02A8               	subwf	(beep@count),f
  7000  15E6  0828               	movf	((beep@count)),w
  7001  15E7  3AFF               	xorlw	0FFh
  7002  15E8  1D03               	skipz
  7003  15E9  2DEB               	goto	u3171
  7004  15EA  2DEC               	goto	u3170
  7005  15EB                     u3171:
  7006  15EB  2DC3               	goto	l244
  7007  15EC                     u3170:
  7008  15EC  2DED               	goto	l246
  7009                           	
  7010  15ED                     l245:	
  7011                           	line	327
  7012                           	
  7013  15ED                     l246:	
  7014  15ED  0008               	return
  7015                           	opt stack 0
  7016                           GLOBAL	__end_of_beep
  7017  15EE                     	__end_of_beep:
  7018                           	signat	_beep,4216
  7019                           	global	_lcd_clr
  7020                           
  7021 ;; *************** function _lcd_clr *****************
  7022 ;; Defined at:
  7023 ;;		line 385 in file "PR23.c"
  7024 ;; Parameters:    Size  Location     Type
  7025 ;;		None
  7026 ;; Auto vars:     Size  Location     Type
  7027 ;;		None
  7028 ;; Return value:  Size  Location     Type
  7029 ;;		None               void
  7030 ;; Registers used:
  7031 ;;		wreg, status,2, status,0, pclath, cstack
  7032 ;; Tracked objects:
  7033 ;;		On entry : 0/0
  7034 ;;		On exit  : 0/0
  7035 ;;		Unchanged: 0/0
  7036 ;; Data sizes:     COMMON   BANK0   BANK1   BANK3   BANK2
  7037 ;;      Params:         0       0       0       0       0
  7038 ;;      Locals:         0       0       0       0       0
  7039 ;;      Temps:          0       0       0       0       0
  7040 ;;      Totals:         0       0       0       0       0
  7041 ;;Total ram usage:        0 bytes
  7042 ;; Hardware stack levels used:    1
  7043 ;; Hardware stack levels required when called:    4
  7044 ;; This function calls:
  7045 ;;		_lcd_config
  7046 ;;		_delay_ms
  7047 ;; This function is called by:
  7048 ;;		_main
  7049 ;;		_line_follow
  7050 ;;		_ultrasonic
  7051 ;;		_analog_sen
  7052 ;;		_wireless_xbee
  7053 ;;		_SKPS_PScon
  7054 ;; This function uses a non-reentrant model
  7055 ;;
  7056                           psect	text1391,local,class=CODE,delta=2,merge=1
  7057                           global __ptext1391
  7058  14C6                     __ptext1391:	;psect for function _lcd_clr
  7059                           psect	text1391
  7060                           	file	"PR23.c"
  7061                           	line	385
  7062                           	global	__size_of_lcd_clr
  7063  0016                     	__size_of_lcd_clr	equ	__end_of_lcd_clr-_lcd_clr
  7064                           	
  7065  14C6                     _lcd_clr:	
  7066                           	opt	stack 2
  7067                           ; Regs used in _lcd_clr: [wreg+status,2+status,0+pclath+cstack]
  7068                           	line	386
  7069                           	
  7070  14C6                     l3384:	
  7071                           ;PR23.c: 386: lcd_config(0x01);
  7072  14C6  3001               	movlw	(01h)
  7073  14C7  160A  118A  24F5   	fcall	_lcd_config
              160A  118A         
  7074                           	line	387
  7075                           ;PR23.c: 387: delay_ms(1);
  7076  14CC  3000               	movlw	0
  7077  14CD  1283               	bcf	status, 5	;RP0=0, select bank0
  7078  14CE  1303               	bcf	status, 6	;RP1=0, select bank0
  7079  14CF  00A3               	movwf	(?_delay_ms+3)
  7080  14D0  3000               	movlw	0
  7081  14D1  00A2               	movwf	(?_delay_ms+2)
  7082  14D2  3000               	movlw	0
  7083  14D3  00A1               	movwf	(?_delay_ms+1)
  7084  14D4  3001               	movlw	01h
  7085  14D5  00A0               	movwf	(?_delay_ms)
  7086                           
  7087  14D6  160A  118A  26CD   	fcall	_delay_ms
              160A  118A         
  7088                           	line	388
  7089                           	
  7090  14DB                     l270:	
  7091  14DB  0008               	return
  7092                           	opt stack 0
  7093                           GLOBAL	__end_of_lcd_clr
  7094  14DC                     	__end_of_lcd_clr:
  7095                           	signat	_lcd_clr,88
  7096                           	global	_lcd_string
  7097                           
  7098 ;; *************** function _lcd_string *****************
  7099 ;; Defined at:
  7100 ;;		line 399 in file "PR23.c"
  7101 ;; Parameters:    Size  Location     Type
  7102 ;;  s               2    9[BANK0 ] PTR const unsigned char 
  7103 ;;		 -> STR_49(7), STR_48(10), STR_47(13), STR_46(15), 
  7104 ;;		 -> STR_44(16), STR_42(10), STR_40(11), STR_38(9), 
  7105 ;;		 -> STR_36(8), STR_28(18), STR_27(15), STR_26(10), 
  7106 ;;		 -> STR_25(16), STR_24(4), STR_23(3), STR_22(7), 
  7107 ;;		 -> STR_21(15), STR_20(4), STR_19(5), STR_18(7), 
  7108 ;;		 -> STR_17(5), STR_16(5), STR_15(5), STR_14(16), 
  7109 ;;		 -> STR_13(4), STR_12(11), STR_11(8), STR_10(9), 
  7110 ;;		 -> STR_9(11), STR_8(11), STR_7(8), STR_6(11), 
  7111 ;;		 -> STR_5(11), STR_4(9), STR_3(8), STR_2(15), 
  7112 ;;		 -> STR_1(16), code_version(17), pr23_rev(14), multifunction_robot(17), 
  7113 ;;		 -> diy_project(16), cytron_website(15), cytron_tech(14), SKPS(7), 
  7114 ;;		 -> XB(9), AS(16), US(17), line(17), 
  7115 ;; Auto vars:     Size  Location     Type
  7116 ;;		None
  7117 ;; Return value:  Size  Location     Type
  7118 ;;		None               void
  7119 ;; Registers used:
  7120 ;;		wreg, fsr0l, fsr0h, status,2, status,0, btemp+1, pclath, cstack
  7121 ;; Tracked objects:
  7122 ;;		On entry : 0/0
  7123 ;;		On exit  : 0/0
  7124 ;;		Unchanged: 0/0
  7125 ;; Data sizes:     COMMON   BANK0   BANK1   BANK3   BANK2
  7126 ;;      Params:         0       2       0       0       0
  7127 ;;      Locals:         0       0       0       0       0
  7128 ;;      Temps:          0       0       0       0       0
  7129 ;;      Totals:         0       2       0       0       0
  7130 ;;Total ram usage:        2 bytes
  7131 ;; Hardware stack levels used:    1
  7132 ;; Hardware stack levels required when called:    4
  7133 ;; This function calls:
  7134 ;;		_lcd_char
  7135 ;; This function is called by:
  7136 ;;		_main
  7137 ;;		_line_follow
  7138 ;;		_ultrasonic
  7139 ;;		_analog_sen
  7140 ;;		_wireless_xbee
  7141 ;;		_SKPS_PScon
  7142 ;; This function uses a non-reentrant model
  7143 ;;
  7144                           psect	text1392,local,class=CODE,delta=2,merge=1
  7145                           global __ptext1392
  7146  15EE                     __ptext1392:	;psect for function _lcd_string
  7147                           psect	text1392
  7148                           	file	"PR23.c"
  7149                           	line	399
  7150                           	global	__size_of_lcd_string
  7151  0031                     	__size_of_lcd_string	equ	__end_of_lcd_string-_lcd_string
  7152                           	
  7153  15EE                     _lcd_string:	
  7154                           	opt	stack 2
  7155                           ; Regs used in _lcd_string: [wreg-fsr0h+status,2+status,0+btemp+1+pclath+cstack]
  7156                           	line	400
  7157                           	
  7158  15EE                     l3386:	
  7159                           ;PR23.c: 400: while (s && *s)lcd_char (*s++);
  7160  15EE  2E06               	goto	l3392
  7161                           	
  7162  15EF                     l282:	
  7163                           	
  7164  15EF                     l3388:	
  7165  15EF  1283               	bcf	status, 5	;RP0=0, select bank0
  7166  15F0  1303               	bcf	status, 6	;RP1=0, select bank0
  7167  15F1  082A               	movf	(lcd_string@s+1),w
  7168  15F2  00FF               	movwf	btemp+1
  7169  15F3  0829               	movf	(lcd_string@s),w
  7170  15F4  0084               	movwf	fsr0
  7171  15F5  120A  118A  2100   	fcall	stringtab
              160A  118A         
  7172  15FA  160A  118A  24DC   	fcall	_lcd_char
              160A  118A         
  7173                           	
  7174  15FF                     l3390:	
  7175  15FF  3001               	movlw	01h
  7176  1600  1283               	bcf	status, 5	;RP0=0, select bank0
  7177  1601  1303               	bcf	status, 6	;RP1=0, select bank0
  7178  1602  07A9               	addwf	(lcd_string@s),f
  7179  1603  1803               	skipnc
  7180  1604  0AAA               	incf	(lcd_string@s+1),f
  7181  1605  2E06               	goto	l3392
  7182                           	
  7183  1606                     l281:	
  7184                           	
  7185  1606                     l3392:	
  7186  1606  1283               	bcf	status, 5	;RP0=0, select bank0
  7187  1607  1303               	bcf	status, 6	;RP1=0, select bank0
  7188  1608  082A               	movf	(lcd_string@s+1),w
  7189  1609  0429               	iorwf	(lcd_string@s),w
  7190  160A  1903               	skipnz
  7191  160B  2E0D               	goto	u3181
  7192  160C  2E0E               	goto	u3180
  7193  160D                     u3181:
  7194  160D  2E1E               	goto	l286
  7195  160E                     u3180:
  7196                           	
  7197  160E                     l3394:	
  7198  160E  082A               	movf	(lcd_string@s+1),w
  7199  160F  00FF               	movwf	btemp+1
  7200  1610  0829               	movf	(lcd_string@s),w
  7201  1611  0084               	movwf	fsr0
  7202  1612  120A  118A  2100   	fcall	stringtab
              160A  118A         
  7203  1617  3800               	iorlw	0
  7204  1618  1D03               	skipz
  7205  1619  2E1B               	goto	u3191
  7206  161A  2E1C               	goto	u3190
  7207  161B                     u3191:
  7208  161B  2DEF               	goto	l3388
  7209  161C                     u3190:
  7210  161C  2E1E               	goto	l286
  7211                           	
  7212  161D                     l284:	
  7213  161D  2E1E               	goto	l286
  7214                           	
  7215  161E                     l285:	
  7216                           	line	401
  7217                           	
  7218  161E                     l286:	
  7219  161E  0008               	return
  7220                           	opt stack 0
  7221                           GLOBAL	__end_of_lcd_string
  7222  161F                     	__end_of_lcd_string:
  7223                           	signat	_lcd_string,4216
  7224                           	global	_lcd_clr_line
  7225                           
  7226 ;; *************** function _lcd_clr_line *****************
  7227 ;; Defined at:
  7228 ;;		line 391 in file "PR23.c"
  7229 ;; Parameters:    Size  Location     Type
  7230 ;;  line            1    wreg     unsigned char 
  7231 ;; Auto vars:     Size  Location     Type
  7232 ;;  line            1   10[BANK0 ] unsigned char 
  7233 ;;  i               1   11[BANK0 ] unsigned char 
  7234 ;; Return value:  Size  Location     Type
  7235 ;;		None               void
  7236 ;; Registers used:
  7237 ;;		wreg, fsr0l, fsr0h, fsr1l, fsr1h, status,2, status,0, btemp+1, pclath, cstack
  7238 ;; Tracked objects:
  7239 ;;		On entry : 0/0
  7240 ;;		On exit  : 0/0
  7241 ;;		Unchanged: 0/0
  7242 ;; Data sizes:     COMMON   BANK0   BANK1   BANK3   BANK2
  7243 ;;      Params:         0       0       0       0       0
  7244 ;;      Locals:         0       2       0       0       0
  7245 ;;      Temps:          0       1       0       0       0
  7246 ;;      Totals:         0       3       0       0       0
  7247 ;;Total ram usage:        3 bytes
  7248 ;; Hardware stack levels used:    1
  7249 ;; Hardware stack levels required when called:    5
  7250 ;; This function calls:
  7251 ;;		_lcd_home
  7252 ;;		_lcd_2ndline
  7253 ;;		_lcd_char
  7254 ;; This function is called by:
  7255 ;;		_main
  7256 ;;		_ultrasonic
  7257 ;;		_wireless_xbee
  7258 ;;		_SKPS_PScon
  7259 ;; This function uses a non-reentrant model
  7260 ;;
  7261                           psect	text1393,local,class=CODE,delta=2,merge=1
  7262                           global __ptext1393
  7263  1691                     __ptext1393:	;psect for function _lcd_clr_line
  7264                           psect	text1393
  7265                           	file	"PR23.c"
  7266                           	line	391
  7267                           	global	__size_of_lcd_clr_line
  7268  003C                     	__size_of_lcd_clr_line	equ	__end_of_lcd_clr_line-_lcd_clr_line
  7269                           	
  7270  1691                     _lcd_clr_line:	
  7271                           	opt	stack 1
  7272                           ; Regs used in _lcd_clr_line: [allreg]
  7273                           ;lcd_clr_line@line stored from wreg
  7274  1691  1283               	bcf	status, 5	;RP0=0, select bank0
  7275  1692  1303               	bcf	status, 6	;RP1=0, select bank0
  7276  1693  00AA               	movwf	(lcd_clr_line@line)
  7277                           	line	392
  7278                           	
  7279  1694                     l3398:	
  7280                           ;PR23.c: 392: unsigned char i = 0;
  7281  1694  01AB               	clrf	(lcd_clr_line@i)
  7282                           	line	393
  7283                           	
  7284  1695                     l3400:	
  7285                           ;PR23.c: 393: if(line == 0)lcd_home();
  7286  1695  08AA               	movf	(lcd_clr_line@line),f
  7287  1696  1D03               	skipz
  7288  1697  2E99               	goto	u3201
  7289  1698  2E9A               	goto	u3200
  7290  1699                     u3201:
  7291  1699  2EA0               	goto	l3404
  7292  169A                     u3200:
  7293                           	
  7294  169A                     l3402:	
  7295  169A  160A  118A  2467   	fcall	_lcd_home
              160A  118A         
  7296  169F  2EAF               	goto	l3408
  7297                           	line	394
  7298                           	
  7299  16A0                     l273:	
  7300                           	
  7301  16A0                     l3404:	
  7302                           ;PR23.c: 394: else if(line == 1)lcd_2ndline();
  7303  16A0  1283               	bcf	status, 5	;RP0=0, select bank0
  7304  16A1  1303               	bcf	status, 6	;RP1=0, select bank0
  7305  16A2  082A               	movf	(lcd_clr_line@line),w
  7306  16A3  3A01               	xorlw	01h
  7307  16A4  1D03               	skipz
  7308  16A5  2EA7               	goto	u3211
  7309  16A6  2EA8               	goto	u3210
  7310  16A7                     u3211:
  7311  16A7  2EAF               	goto	l3408
  7312  16A8                     u3210:
  7313                           	
  7314  16A8                     l3406:	
  7315  16A8  120A  118A  27F9   	fcall	_lcd_2ndline
              160A  118A         
  7316  16AD  2EAF               	goto	l3408
  7317                           	
  7318  16AE                     l275:	
  7319  16AE  2EAF               	goto	l3408
  7320                           	line	396
  7321                           	
  7322  16AF                     l274:	
  7323                           	
  7324  16AF                     l3408:	
  7325                           ;PR23.c: 396: for(i = 16; i > 0; i--) lcd_char(' ');
  7326  16AF  3010               	movlw	(010h)
  7327  16B0  1283               	bcf	status, 5	;RP0=0, select bank0
  7328  16B1  1303               	bcf	status, 6	;RP1=0, select bank0
  7329  16B2  00A9               	movwf	(??_lcd_clr_line+0)+0
  7330  16B3  0829               	movf	(??_lcd_clr_line+0)+0,w
  7331  16B4  00AB               	movwf	(lcd_clr_line@i)
  7332                           	
  7333  16B5                     l3410:	
  7334  16B5  08AB               	movf	(lcd_clr_line@i),f
  7335  16B6  1D03               	skipz
  7336  16B7  2EB9               	goto	u3221
  7337  16B8  2EBA               	goto	u3220
  7338  16B9                     u3221:
  7339  16B9  2EBC               	goto	l3414
  7340  16BA                     u3220:
  7341  16BA  2ECC               	goto	l278
  7342                           	
  7343  16BB                     l3412:	
  7344  16BB  2ECC               	goto	l278
  7345                           	
  7346  16BC                     l276:	
  7347                           	
  7348  16BC                     l3414:	
  7349  16BC  3020               	movlw	(020h)
  7350  16BD  160A  118A  24DC   	fcall	_lcd_char
              160A  118A         
  7351                           	
  7352  16C2                     l3416:	
  7353  16C2  3001               	movlw	low(01h)
  7354  16C3  1283               	bcf	status, 5	;RP0=0, select bank0
  7355  16C4  1303               	bcf	status, 6	;RP1=0, select bank0
  7356  16C5  02AB               	subwf	(lcd_clr_line@i),f
  7357                           	
  7358  16C6                     l3418:	
  7359  16C6  08AB               	movf	(lcd_clr_line@i),f
  7360  16C7  1D03               	skipz
  7361  16C8  2ECA               	goto	u3231
  7362  16C9  2ECB               	goto	u3230
  7363  16CA                     u3231:
  7364  16CA  2EBC               	goto	l3414
  7365  16CB                     u3230:
  7366  16CB  2ECC               	goto	l278
  7367                           	
  7368  16CC                     l277:	
  7369                           	line	397
  7370                           	
  7371  16CC                     l278:	
  7372  16CC  0008               	return
  7373                           	opt stack 0
  7374                           GLOBAL	__end_of_lcd_clr_line
  7375  16CD                     	__end_of_lcd_clr_line:
  7376                           	signat	_lcd_clr_line,4216
  7377                           	global	_lcd_2ndline
  7378                           
  7379 ;; *************** function _lcd_2ndline *****************
  7380 ;; Defined at:
  7381 ;;		line 380 in file "PR23.c"
  7382 ;; Parameters:    Size  Location     Type
  7383 ;;		None
  7384 ;; Auto vars:     Size  Location     Type
  7385 ;;		None
  7386 ;; Return value:  Size  Location     Type
  7387 ;;		None               void
  7388 ;; Registers used:
  7389 ;;		wreg, status,2, status,0, pclath, cstack
  7390 ;; Tracked objects:
  7391 ;;		On entry : 0/0
  7392 ;;		On exit  : 0/0
  7393 ;;		Unchanged: 0/0
  7394 ;; Data sizes:     COMMON   BANK0   BANK1   BANK3   BANK2
  7395 ;;      Params:         0       0       0       0       0
  7396 ;;      Locals:         0       0       0       0       0
  7397 ;;      Temps:          0       0       0       0       0
  7398 ;;      Totals:         0       0       0       0       0
  7399 ;;Total ram usage:        0 bytes
  7400 ;; Hardware stack levels used:    1
  7401 ;; Hardware stack levels required when called:    4
  7402 ;; This function calls:
  7403 ;;		_lcd_config
  7404 ;; This function is called by:
  7405 ;;		_main
  7406 ;;		_lcd_clr_line
  7407 ;;		_line_follow
  7408 ;;		_ultrasonic
  7409 ;;		_analog_sen
  7410 ;;		_wireless_xbee
  7411 ;;		_SKPS_PScon
  7412 ;; This function uses a non-reentrant model
  7413 ;;
  7414                           psect	text1394,local,class=CODE,delta=2,merge=1
  7415                           global __ptext1394
  7416  07F9                     __ptext1394:	;psect for function _lcd_2ndline
  7417                           psect	text1394
  7418                           	file	"PR23.c"
  7419                           	line	380
  7420                           	global	__size_of_lcd_2ndline
  7421  0007                     	__size_of_lcd_2ndline	equ	__end_of_lcd_2ndline-_lcd_2ndline
  7422                           	
  7423  07F9                     _lcd_2ndline:	
  7424                           	opt	stack 1
  7425                           ; Regs used in _lcd_2ndline: [wreg+status,2+status,0+pclath+cstack]
  7426                           	line	381
  7427                           	
  7428  07F9                     l3396:	
  7429                           ;PR23.c: 381: lcd_config(0x80 + 0x40);
  7430  07F9  30C0               	movlw	(0C0h)
  7431  07FA  160A  118A  24F5   	fcall	_lcd_config
              120A  118A         
  7432                           	line	382
  7433                           	
  7434  07FF                     l267:	
  7435  07FF  0008               	return
  7436                           	opt stack 0
  7437                           GLOBAL	__end_of_lcd_2ndline
  7438  0800                     	__end_of_lcd_2ndline:
  7439                           	signat	_lcd_2ndline,88
  7440                           	global	_lcd_home
  7441                           
  7442 ;; *************** function _lcd_home *****************
  7443 ;; Defined at:
  7444 ;;		line 375 in file "PR23.c"
  7445 ;; Parameters:    Size  Location     Type
  7446 ;;		None
  7447 ;; Auto vars:     Size  Location     Type
  7448 ;;		None
  7449 ;; Return value:  Size  Location     Type
  7450 ;;		None               void
  7451 ;; Registers used:
  7452 ;;		wreg, status,2, status,0, pclath, cstack
  7453 ;; Tracked objects:
  7454 ;;		On entry : 0/0
  7455 ;;		On exit  : 0/0
  7456 ;;		Unchanged: 0/0
  7457 ;; Data sizes:     COMMON   BANK0   BANK1   BANK3   BANK2
  7458 ;;      Params:         0       0       0       0       0
  7459 ;;      Locals:         0       0       0       0       0
  7460 ;;      Temps:          0       0       0       0       0
  7461 ;;      Totals:         0       0       0       0       0
  7462 ;;Total ram usage:        0 bytes
  7463 ;; Hardware stack levels used:    1
  7464 ;; Hardware stack levels required when called:    4
  7465 ;; This function calls:
  7466 ;;		_lcd_config
  7467 ;; This function is called by:
  7468 ;;		_main
  7469 ;;		_lcd_clr_line
  7470 ;; This function uses a non-reentrant model
  7471 ;;
  7472                           psect	text1395,local,class=CODE,delta=2,merge=1
  7473                           global __ptext1395
  7474  1467                     __ptext1395:	;psect for function _lcd_home
  7475                           psect	text1395
  7476                           	file	"PR23.c"
  7477                           	line	375
  7478                           	global	__size_of_lcd_home
  7479  0007                     	__size_of_lcd_home	equ	__end_of_lcd_home-_lcd_home
  7480                           	
  7481  1467                     _lcd_home:	
  7482                           	opt	stack 1
  7483                           ; Regs used in _lcd_home: [wreg+status,2+status,0+pclath+cstack]
  7484                           	line	376
  7485                           	
  7486  1467                     l3420:	
  7487                           ;PR23.c: 376: lcd_config(0x02);
  7488  1467  3002               	movlw	(02h)
  7489  1468  160A  118A  24F5   	fcall	_lcd_config
              160A  118A         
  7490                           	line	377
  7491                           	
  7492  146D                     l264:	
  7493  146D  0008               	return
  7494                           	opt stack 0
  7495                           GLOBAL	__end_of_lcd_home
  7496  146E                     	__end_of_lcd_home:
  7497                           	signat	_lcd_home,88
  7498                           	global	_lcd_goto
  7499                           
  7500 ;; *************** function _lcd_goto *****************
  7501 ;; Defined at:
  7502 ;;		line 366 in file "PR23.c"
  7503 ;; Parameters:    Size  Location     Type
  7504 ;;  data            1    wreg     unsigned char 
  7505 ;; Auto vars:     Size  Location     Type
  7506 ;;  data            1    9[BANK0 ] unsigned char 
  7507 ;; Return value:  Size  Location     Type
  7508 ;;		None               void
  7509 ;; Registers used:
  7510 ;;		wreg, status,2, status,0, pclath, cstack
  7511 ;; Tracked objects:
  7512 ;;		On entry : 0/0
  7513 ;;		On exit  : 0/0
  7514 ;;		Unchanged: 0/0
  7515 ;; Data sizes:     COMMON   BANK0   BANK1   BANK3   BANK2
  7516 ;;      Params:         0       0       0       0       0
  7517 ;;      Locals:         0       1       0       0       0
  7518 ;;      Temps:          0       0       0       0       0
  7519 ;;      Totals:         0       1       0       0       0
  7520 ;;Total ram usage:        1 bytes
  7521 ;; Hardware stack levels used:    1
  7522 ;; Hardware stack levels required when called:    4
  7523 ;; This function calls:
  7524 ;;		_lcd_config
  7525 ;; This function is called by:
  7526 ;;		_ultrasonic
  7527 ;;		_analog_sen
  7528 ;;		_wireless_xbee
  7529 ;;		_SKPS_PScon
  7530 ;; This function uses a non-reentrant model
  7531 ;;
  7532                           psect	text1396,local,class=CODE,delta=2,merge=1
  7533                           global __ptext1396
  7534  0800                     __ptext1396:	;psect for function _lcd_goto
  7535                           psect	text1396
  7536                           	file	"PR23.c"
  7537                           	line	366
  7538                           	global	__size_of_lcd_goto
  7539  000B                     	__size_of_lcd_goto	equ	__end_of_lcd_goto-_lcd_goto
  7540                           	
  7541  0800                     _lcd_goto:	
  7542                           	opt	stack 2
  7543                           ; Regs used in _lcd_goto: [wreg+status,2+status,0+pclath+cstack]
  7544                           ;lcd_goto@data stored from wreg
  7545  0800  1283               	bcf	status, 5	;RP0=0, select bank0
  7546  0801  1303               	bcf	status, 6	;RP1=0, select bank0
  7547  0802  00A9               	movwf	(lcd_goto@data)
  7548                           	line	367
  7549                           	
  7550  0803                     l4044:	
  7551                           ;PR23.c: 367: lcd_config(0x80 + data);
  7552  0803  0829               	movf	(lcd_goto@data),w
  7553  0804  3E80               	addlw	080h
  7554  0805  160A  118A  24F5   	fcall	_lcd_config
              120A  158A         
  7555                           	line	373
  7556                           	
  7557  080A                     l261:	
  7558  080A  0008               	return
  7559                           	opt stack 0
  7560                           GLOBAL	__end_of_lcd_goto
  7561  080B                     	__end_of_lcd_goto:
  7562                           	signat	_lcd_goto,4216
  7563                           	global	_lcd_config
  7564                           
  7565 ;; *************** function _lcd_config *****************
  7566 ;; Defined at:
  7567 ;;		line 342 in file "PR23.c"
  7568 ;; Parameters:    Size  Location     Type
  7569 ;;  data            1    wreg     unsigned char 
  7570 ;; Auto vars:     Size  Location     Type
  7571 ;;  data            1    8[BANK0 ] unsigned char 
  7572 ;; Return value:  Size  Location     Type
  7573 ;;		None               void
  7574 ;; Registers used:
  7575 ;;		wreg, status,2, status,0, pclath, cstack
  7576 ;; Tracked objects:
  7577 ;;		On entry : 0/0
  7578 ;;		On exit  : 0/0
  7579 ;;		Unchanged: 0/0
  7580 ;; Data sizes:     COMMON   BANK0   BANK1   BANK3   BANK2
  7581 ;;      Params:         0       0       0       0       0
  7582 ;;      Locals:         0       1       0       0       0
  7583 ;;      Temps:          0       0       0       0       0
  7584 ;;      Totals:         0       1       0       0       0
  7585 ;;Total ram usage:        1 bytes
  7586 ;; Hardware stack levels used:    1
  7587 ;; Hardware stack levels required when called:    3
  7588 ;; This function calls:
  7589 ;;		_delay_ms
  7590 ;;		_e_pulse
  7591 ;; This function is called by:
  7592 ;;		_lcd_init
  7593 ;;		_lcd_goto
  7594 ;;		_lcd_home
  7595 ;;		_lcd_2ndline
  7596 ;;		_lcd_clr
  7597 ;; This function uses a non-reentrant model
  7598 ;;
  7599                           psect	text1397,local,class=CODE,delta=2,merge=1
  7600                           global __ptext1397
  7601  14F5                     __ptext1397:	;psect for function _lcd_config
  7602                           psect	text1397
  7603                           	file	"PR23.c"
  7604                           	line	342
  7605                           	global	__size_of_lcd_config
  7606  0019                     	__size_of_lcd_config	equ	__end_of_lcd_config-_lcd_config
  7607                           	
  7608  14F5                     _lcd_config:	
  7609                           	opt	stack 2
  7610                           ; Regs used in _lcd_config: [wreg+status,2+status,0+pclath+cstack]
  7611                           ;lcd_config@data stored from wreg
  7612  14F5  1283               	bcf	status, 5	;RP0=0, select bank0
  7613  14F6  1303               	bcf	status, 6	;RP1=0, select bank0
  7614  14F7  00A8               	movwf	(lcd_config@data)
  7615                           	line	343
  7616                           	
  7617  14F8                     l4022:	
  7618                           ;PR23.c: 343: RB7 = 0;
  7619  14F8  1386               	bcf	(55/8),(55)&7	;volatile
  7620                           	line	344
  7621                           	
  7622  14F9                     l4024:	
  7623                           ;PR23.c: 344: PORTD = data;
  7624  14F9  0828               	movf	(lcd_config@data),w
  7625  14FA  0088               	movwf	(8)	;volatile
  7626                           	line	345
  7627                           	
  7628  14FB                     l4026:	
  7629                           ;PR23.c: 345: delay_ms(1);
  7630  14FB  3000               	movlw	0
  7631  14FC  00A3               	movwf	(?_delay_ms+3)
  7632  14FD  3000               	movlw	0
  7633  14FE  00A2               	movwf	(?_delay_ms+2)
  7634  14FF  3000               	movlw	0
  7635  1500  00A1               	movwf	(?_delay_ms+1)
  7636  1501  3001               	movlw	01h
  7637  1502  00A0               	movwf	(?_delay_ms)
  7638                           
  7639  1503  160A  118A  26CD   	fcall	_delay_ms
              160A  118A         
  7640                           	line	346
  7641                           	
  7642  1508                     l4028:	
  7643                           ;PR23.c: 346: e_pulse();
  7644  1508  160A  118A  2548   	fcall	_e_pulse
              160A  118A         
  7645                           	line	347
  7646                           	
  7647  150D                     l252:	
  7648  150D  0008               	return
  7649                           	opt stack 0
  7650                           GLOBAL	__end_of_lcd_config
  7651  150E                     	__end_of_lcd_config:
  7652                           	signat	_lcd_config,4216
  7653                           	global	_lcd_dis_num
  7654                           
  7655 ;; *************** function _lcd_dis_num *****************
  7656 ;; Defined at:
  7657 ;;		line 404 in file "PR23.c"
  7658 ;; Parameters:    Size  Location     Type
  7659 ;;  num_digit       1    wreg     unsigned char 
  7660 ;;  value           2    9[BANK0 ] unsigned int 
  7661 ;; Auto vars:     Size  Location     Type
  7662 ;;  num_digit       1   18[BANK0 ] unsigned char 
  7663 ;;  digit           5   12[BANK0 ] unsigned char [5]
  7664 ;;  base            2   19[BANK0 ] unsigned int 
  7665 ;;  i               1   22[BANK0 ] unsigned char 
  7666 ;;  j               1   21[BANK0 ] unsigned char 
  7667 ;;  non_zero        1   17[BANK0 ] unsigned char 
  7668 ;; Return value:  Size  Location     Type
  7669 ;;		None               void
  7670 ;; Registers used:
  7671 ;;		wreg, fsr0l, fsr0h, status,2, status,0, pclath, cstack
  7672 ;; Tracked objects:
  7673 ;;		On entry : 0/0
  7674 ;;		On exit  : 0/0
  7675 ;;		Unchanged: 0/0
  7676 ;; Data sizes:     COMMON   BANK0   BANK1   BANK3   BANK2
  7677 ;;      Params:         0       2       0       0       0
  7678 ;;      Locals:         0      11       0       0       0
  7679 ;;      Temps:          0       1       0       0       0
  7680 ;;      Totals:         0      14       0       0       0
  7681 ;;Total ram usage:       14 bytes
  7682 ;; Hardware stack levels used:    1
  7683 ;; Hardware stack levels required when called:    4
  7684 ;; This function calls:
  7685 ;;		___lwdiv
  7686 ;;		___lwmod
  7687 ;;		_lcd_char
  7688 ;; This function is called by:
  7689 ;;		_ultrasonic
  7690 ;;		_analog_sen
  7691 ;; This function uses a non-reentrant model
  7692 ;;
  7693                           psect	text1398,local,class=CODE,delta=2,merge=1
  7694                           global __ptext1398
  7695  0909                     __ptext1398:	;psect for function _lcd_dis_num
  7696                           psect	text1398
  7697                           	file	"PR23.c"
  7698                           	line	404
  7699                           	global	__size_of_lcd_dis_num
  7700  00F7                     	__size_of_lcd_dis_num	equ	__end_of_lcd_dis_num-_lcd_dis_num
  7701                           	
  7702  0909                     _lcd_dis_num:	
  7703                           	opt	stack 2
  7704                           ; Regs used in _lcd_dis_num: [wreg-fsr0h+status,2+status,0+pclath+cstack]
  7705                           ;lcd_dis_num@num_digit stored from wreg
  7706                           	line	405
  7707  0909  1283               	bcf	status, 5	;RP0=0, select bank0
  7708  090A  1303               	bcf	status, 6	;RP1=0, select bank0
  7709  090B  00B2               	movwf	(lcd_dis_num@num_digit)
  7710                           	
  7711  090C                     l4046:	
  7712                           ;PR23.c: 405: unsigned char digit[5] = {0};
  7713  090C  302C               	movlw	(lcd_dis_num@digit)&0ffh
  7714  090D  0084               	movwf	fsr0
  7715  090E  0865               	movf	(lcd_dis_num@F1209),w
  7716  090F  1383               	bcf	status, 7	;select IRP bank0
  7717  0910  0080               	movwf	indf
  7718  0911  0A84               	incf	fsr0,f
  7719  0912  0866               	movf	(lcd_dis_num@F1209)+1,w
  7720  0913  0080               	movwf	indf
  7721  0914  0A84               	incf	fsr0,f
  7722  0915  0867               	movf	(lcd_dis_num@F1209)+2,w
  7723  0916  0080               	movwf	indf
  7724  0917  0A84               	incf	fsr0,f
  7725  0918  0868               	movf	(lcd_dis_num@F1209)+3,w
  7726  0919  0080               	movwf	indf
  7727  091A  0A84               	incf	fsr0,f
  7728  091B  0869               	movf	(lcd_dis_num@F1209)+4,w
  7729  091C  0080               	movwf	indf
  7730                           	line	406
  7731                           	
  7732  091D                     l4048:	
  7733                           ;PR23.c: 406: unsigned char i = 0, j = 0, non_zero = 0;
  7734  091D  01B6               	clrf	(lcd_dis_num@i)
  7735                           	
  7736  091E                     l4050:	
  7737  091E  01B5               	clrf	(lcd_dis_num@j)
  7738                           	
  7739  091F                     l4052:	
  7740  091F  01B1               	clrf	(lcd_dis_num@non_zero)
  7741                           	line	407
  7742                           	
  7743  0920                     l4054:	
  7744                           ;PR23.c: 407: unsigned int base = 10000;
  7745  0920  3010               	movlw	low(02710h)
  7746  0921  00B3               	movwf	(lcd_dis_num@base)
  7747  0922  3027               	movlw	high(02710h)
  7748  0923  00B4               	movwf	((lcd_dis_num@base))+1
  7749                           	line	409
  7750                           	
  7751  0924                     l4056:	
  7752                           ;PR23.c: 409: for(j = 4; j > 0; j--)
  7753  0924  3004               	movlw	(04h)
  7754  0925  00AB               	movwf	(??_lcd_dis_num+0)+0
  7755  0926  082B               	movf	(??_lcd_dis_num+0)+0,w
  7756  0927  00B5               	movwf	(lcd_dis_num@j)
  7757                           	
  7758  0928                     l4058:	
  7759  0928  08B5               	movf	(lcd_dis_num@j),f
  7760  0929  1D03               	skipz
  7761  092A  292C               	goto	u4071
  7762  092B  292D               	goto	u4070
  7763  092C                     u4071:
  7764  092C  292F               	goto	l4062
  7765  092D                     u4070:
  7766  092D  299F               	goto	l4074
  7767                           	
  7768  092E                     l4060:	
  7769  092E  299F               	goto	l4074
  7770                           	line	410
  7771                           	
  7772  092F                     l291:	
  7773                           	line	411
  7774                           	
  7775  092F                     l4062:	
  7776                           ;PR23.c: 410: {
  7777                           ;PR23.c: 411: digit[j] = value / base;
  7778  092F  0834               	movf	(lcd_dis_num@base+1),w
  7779  0930  01A1               	clrf	(?___lwdiv+1)
  7780  0931  07A1               	addwf	(?___lwdiv+1)
  7781  0932  0833               	movf	(lcd_dis_num@base),w
  7782  0933  01A0               	clrf	(?___lwdiv)
  7783  0934  07A0               	addwf	(?___lwdiv)
  7784                           
  7785  0935  082A               	movf	(lcd_dis_num@value+1),w
  7786  0936  01A3               	clrf	1+(?___lwdiv)+02h
  7787  0937  07A3               	addwf	1+(?___lwdiv)+02h
  7788  0938  0829               	movf	(lcd_dis_num@value),w
  7789  0939  01A2               	clrf	0+(?___lwdiv)+02h
  7790  093A  07A2               	addwf	0+(?___lwdiv)+02h
  7791                           
  7792  093B  120A  158A  200B   	fcall	___lwdiv
              120A  158A         
  7793  0940  1283               	bcf	status, 5	;RP0=0, select bank0
  7794  0941  1303               	bcf	status, 6	;RP1=0, select bank0
  7795  0942  0820               	movf	(0+(?___lwdiv)),w
  7796  0943  00AB               	movwf	(??_lcd_dis_num+0)+0
  7797  0944  0835               	movf	(lcd_dis_num@j),w
  7798  0945  3E2C               	addlw	lcd_dis_num@digit&0ffh
  7799  0946  0084               	movwf	fsr0
  7800  0947  082B               	movf	(??_lcd_dis_num+0)+0,w
  7801  0948  1383               	bcf	status, 7	;select IRP bank0
  7802  0949  0080               	movwf	indf
  7803                           	line	412
  7804                           	
  7805  094A                     l4064:	
  7806                           ;PR23.c: 412: if(j == 1)
  7807  094A  0835               	movf	(lcd_dis_num@j),w
  7808  094B  3A01               	xorlw	01h
  7809  094C  1D03               	skipz
  7810  094D  294F               	goto	u4081
  7811  094E  2950               	goto	u4080
  7812  094F                     u4081:
  7813  094F  2966               	goto	l4068
  7814  0950                     u4080:
  7815                           	line	414
  7816                           	
  7817  0950                     l4066:	
  7818                           ;PR23.c: 413: {
  7819                           ;PR23.c: 414: digit[0] = value % 10;
  7820  0950  300A               	movlw	low(0Ah)
  7821  0951  00A0               	movwf	(?___lwmod)
  7822  0952  3000               	movlw	high(0Ah)
  7823  0953  00A1               	movwf	((?___lwmod))+1
  7824  0954  082A               	movf	(lcd_dis_num@value+1),w
  7825  0955  01A3               	clrf	1+(?___lwmod)+02h
  7826  0956  07A3               	addwf	1+(?___lwmod)+02h
  7827  0957  0829               	movf	(lcd_dis_num@value),w
  7828  0958  01A2               	clrf	0+(?___lwmod)+02h
  7829  0959  07A2               	addwf	0+(?___lwmod)+02h
  7830                           
  7831  095A  160A  118A  270A   	fcall	___lwmod
              120A  158A         
  7832  095F  1283               	bcf	status, 5	;RP0=0, select bank0
  7833  0960  1303               	bcf	status, 6	;RP1=0, select bank0
  7834  0961  0820               	movf	(0+(?___lwmod)),w
  7835  0962  00AB               	movwf	(??_lcd_dis_num+0)+0
  7836  0963  082B               	movf	(??_lcd_dis_num+0)+0,w
  7837  0964  00AC               	movwf	(lcd_dis_num@digit)
  7838                           	line	415
  7839                           ;PR23.c: 415: continue;
  7840  0965  2997               	goto	l4070
  7841                           	line	416
  7842                           	
  7843  0966                     l293:	
  7844                           	line	417
  7845                           	
  7846  0966                     l4068:	
  7847                           ;PR23.c: 416: }
  7848                           ;PR23.c: 417: value = value % base;
  7849  0966  0834               	movf	(lcd_dis_num@base+1),w
  7850  0967  01A1               	clrf	(?___lwmod+1)
  7851  0968  07A1               	addwf	(?___lwmod+1)
  7852  0969  0833               	movf	(lcd_dis_num@base),w
  7853  096A  01A0               	clrf	(?___lwmod)
  7854  096B  07A0               	addwf	(?___lwmod)
  7855                           
  7856  096C  082A               	movf	(lcd_dis_num@value+1),w
  7857  096D  01A3               	clrf	1+(?___lwmod)+02h
  7858  096E  07A3               	addwf	1+(?___lwmod)+02h
  7859  096F  0829               	movf	(lcd_dis_num@value),w
  7860  0970  01A2               	clrf	0+(?___lwmod)+02h
  7861  0971  07A2               	addwf	0+(?___lwmod)+02h
  7862                           
  7863  0972  160A  118A  270A   	fcall	___lwmod
              120A  158A         
  7864  0977  1283               	bcf	status, 5	;RP0=0, select bank0
  7865  0978  1303               	bcf	status, 6	;RP1=0, select bank0
  7866  0979  0821               	movf	(1+(?___lwmod)),w
  7867  097A  01AA               	clrf	(lcd_dis_num@value+1)
  7868  097B  07AA               	addwf	(lcd_dis_num@value+1)
  7869  097C  0820               	movf	(0+(?___lwmod)),w
  7870  097D  01A9               	clrf	(lcd_dis_num@value)
  7871  097E  07A9               	addwf	(lcd_dis_num@value)
  7872                           
  7873                           	line	418
  7874                           ;PR23.c: 418: base = base / 10;
  7875  097F  300A               	movlw	low(0Ah)
  7876  0980  00A0               	movwf	(?___lwdiv)
  7877  0981  3000               	movlw	high(0Ah)
  7878  0982  00A1               	movwf	((?___lwdiv))+1
  7879  0983  0834               	movf	(lcd_dis_num@base+1),w
  7880  0984  01A3               	clrf	1+(?___lwdiv)+02h
  7881  0985  07A3               	addwf	1+(?___lwdiv)+02h
  7882  0986  0833               	movf	(lcd_dis_num@base),w
  7883  0987  01A2               	clrf	0+(?___lwdiv)+02h
  7884  0988  07A2               	addwf	0+(?___lwdiv)+02h
  7885                           
  7886  0989  120A  158A  200B   	fcall	___lwdiv
              120A  158A         
  7887  098E  1283               	bcf	status, 5	;RP0=0, select bank0
  7888  098F  1303               	bcf	status, 6	;RP1=0, select bank0
  7889  0990  0821               	movf	(1+(?___lwdiv)),w
  7890  0991  01B4               	clrf	(lcd_dis_num@base+1)
  7891  0992  07B4               	addwf	(lcd_dis_num@base+1)
  7892  0993  0820               	movf	(0+(?___lwdiv)),w
  7893  0994  01B3               	clrf	(lcd_dis_num@base)
  7894  0995  07B3               	addwf	(lcd_dis_num@base)
  7895                           
  7896  0996  2997               	goto	l4070
  7897                           	line	409
  7898                           	
  7899  0997                     l294:	
  7900                           	
  7901  0997                     l4070:	
  7902  0997  3001               	movlw	low(01h)
  7903  0998  02B5               	subwf	(lcd_dis_num@j),f
  7904                           	
  7905  0999                     l4072:	
  7906  0999  08B5               	movf	(lcd_dis_num@j),f
  7907  099A  1D03               	skipz
  7908  099B  299D               	goto	u4091
  7909  099C  299E               	goto	u4090
  7910  099D                     u4091:
  7911  099D  292F               	goto	l4062
  7912  099E                     u4090:
  7913  099E  299F               	goto	l4074
  7914                           	
  7915  099F                     l292:	
  7916                           	line	422
  7917                           	
  7918  099F                     l4074:	
  7919                           ;PR23.c: 419: }
  7920                           ;PR23.c: 422: if(num_digit > 5) num_digit = 5;
  7921  099F  3006               	movlw	(06h)
  7922  09A0  0232               	subwf	(lcd_dis_num@num_digit),w
  7923  09A1  1C03               	skipc
  7924  09A2  29A4               	goto	u4101
  7925  09A3  29A5               	goto	u4100
  7926  09A4                     u4101:
  7927  09A4  29A9               	goto	l295
  7928  09A5                     u4100:
  7929                           	
  7930  09A5                     l4076:	
  7931  09A5  3005               	movlw	(05h)
  7932  09A6  00AB               	movwf	(??_lcd_dis_num+0)+0
  7933  09A7  082B               	movf	(??_lcd_dis_num+0)+0,w
  7934  09A8  00B2               	movwf	(lcd_dis_num@num_digit)
  7935                           	
  7936  09A9                     l295:	
  7937                           	line	423
  7938                           ;PR23.c: 423: for(i = num_digit; i > 0; i--)
  7939  09A9  0832               	movf	(lcd_dis_num@num_digit),w
  7940  09AA  00AB               	movwf	(??_lcd_dis_num+0)+0
  7941  09AB  082B               	movf	(??_lcd_dis_num+0)+0,w
  7942  09AC  00B6               	movwf	(lcd_dis_num@i)
  7943                           	
  7944  09AD                     l4078:	
  7945  09AD  08B6               	movf	(lcd_dis_num@i),f
  7946  09AE  1D03               	skipz
  7947  09AF  29B1               	goto	u4111
  7948  09B0  29B2               	goto	u4110
  7949  09B1                     u4111:
  7950  09B1  29B4               	goto	l4082
  7951  09B2                     u4110:
  7952  09B2  29FF               	goto	l302
  7953                           	
  7954  09B3                     l4080:	
  7955  09B3  29FF               	goto	l302
  7956                           	line	424
  7957                           	
  7958  09B4                     l296:	
  7959                           	line	425
  7960                           	
  7961  09B4                     l4082:	
  7962                           ;PR23.c: 424: {
  7963                           ;PR23.c: 425: if(i == 1)
  7964  09B4  0836               	movf	(lcd_dis_num@i),w
  7965  09B5  3A01               	xorlw	01h
  7966  09B6  1D03               	skipz
  7967  09B7  29B9               	goto	u4121
  7968  09B8  29BA               	goto	u4120
  7969  09B9                     u4121:
  7970  09B9  29C7               	goto	l4086
  7971  09BA                     u4120:
  7972                           	line	427
  7973                           	
  7974  09BA                     l4084:	
  7975                           ;PR23.c: 426: {
  7976                           ;PR23.c: 427: lcd_char(digit[i-1]+0x30);
  7977  09BA  0836               	movf	(lcd_dis_num@i),w
  7978  09BB  3EFF               	addlw	0FFh
  7979  09BC  3E2C               	addlw	lcd_dis_num@digit&0ffh
  7980  09BD  0084               	movwf	fsr0
  7981  09BE  1383               	bcf	status, 7	;select IRP bank0
  7982  09BF  0800               	movf	indf,w
  7983  09C0  3E30               	addlw	030h
  7984  09C1  160A  118A  24DC   	fcall	_lcd_char
              120A  158A         
  7985                           	line	428
  7986                           ;PR23.c: 428: }
  7987  09C6  29F5               	goto	l4096
  7988                           	line	429
  7989                           	
  7990  09C7                     l298:	
  7991                           	line	431
  7992                           	
  7993  09C7                     l4086:	
  7994                           ;PR23.c: 429: else
  7995                           ;PR23.c: 430: {
  7996                           ;PR23.c: 431: if((digit[i-1] == 0) && (non_zero == 0))lcd_char(' ');
  7997  09C7  1283               	bcf	status, 5	;RP0=0, select bank0
  7998  09C8  1303               	bcf	status, 6	;RP1=0, select bank0
  7999  09C9  0836               	movf	(lcd_dis_num@i),w
  8000  09CA  3EFF               	addlw	0FFh
  8001  09CB  3E2C               	addlw	lcd_dis_num@digit&0ffh
  8002  09CC  0084               	movwf	fsr0
  8003  09CD  1383               	bcf	status, 7	;select IRP bank0
  8004  09CE  0880               	movf	indf,f
  8005  09CF  1D03               	skipz
  8006  09D0  29D2               	goto	u4131
  8007  09D1  29D3               	goto	u4130
  8008  09D2                     u4131:
  8009  09D2  29DF               	goto	l4092
  8010  09D3                     u4130:
  8011                           	
  8012  09D3                     l4088:	
  8013  09D3  08B1               	movf	(lcd_dis_num@non_zero),f
  8014  09D4  1D03               	skipz
  8015  09D5  29D7               	goto	u4141
  8016  09D6  29D8               	goto	u4140
  8017  09D7                     u4141:
  8018  09D7  29DF               	goto	l4092
  8019  09D8                     u4140:
  8020                           	
  8021  09D8                     l4090:	
  8022  09D8  3020               	movlw	(020h)
  8023  09D9  160A  118A  24DC   	fcall	_lcd_char
              120A  158A         
  8024  09DE  29F5               	goto	l4096
  8025                           	line	432
  8026                           	
  8027  09DF                     l300:	
  8028                           	line	434
  8029                           	
  8030  09DF                     l4092:	
  8031                           ;PR23.c: 432: else
  8032                           ;PR23.c: 433: {
  8033                           ;PR23.c: 434: lcd_char(digit[i-1]+0x30);
  8034  09DF  1283               	bcf	status, 5	;RP0=0, select bank0
  8035  09E0  1303               	bcf	status, 6	;RP1=0, select bank0
  8036  09E1  0836               	movf	(lcd_dis_num@i),w
  8037  09E2  3EFF               	addlw	0FFh
  8038  09E3  3E2C               	addlw	lcd_dis_num@digit&0ffh
  8039  09E4  0084               	movwf	fsr0
  8040  09E5  1383               	bcf	status, 7	;select IRP bank0
  8041  09E6  0800               	movf	indf,w
  8042  09E7  3E30               	addlw	030h
  8043  09E8  160A  118A  24DC   	fcall	_lcd_char
              120A  158A         
  8044                           	line	435
  8045                           	
  8046  09ED                     l4094:	
  8047                           ;PR23.c: 435: non_zero ++;
  8048  09ED  3001               	movlw	(01h)
  8049  09EE  1283               	bcf	status, 5	;RP0=0, select bank0
  8050  09EF  1303               	bcf	status, 6	;RP1=0, select bank0
  8051  09F0  00AB               	movwf	(??_lcd_dis_num+0)+0
  8052  09F1  082B               	movf	(??_lcd_dis_num+0)+0,w
  8053  09F2  07B1               	addwf	(lcd_dis_num@non_zero),f
  8054  09F3  29F5               	goto	l4096
  8055                           	line	436
  8056                           	
  8057  09F4                     l301:	
  8058  09F4  29F5               	goto	l4096
  8059                           	line	437
  8060                           	
  8061  09F5                     l299:	
  8062                           	line	423
  8063                           	
  8064  09F5                     l4096:	
  8065  09F5  3001               	movlw	low(01h)
  8066  09F6  1283               	bcf	status, 5	;RP0=0, select bank0
  8067  09F7  1303               	bcf	status, 6	;RP1=0, select bank0
  8068  09F8  02B6               	subwf	(lcd_dis_num@i),f
  8069                           	
  8070  09F9                     l4098:	
  8071  09F9  08B6               	movf	(lcd_dis_num@i),f
  8072  09FA  1D03               	skipz
  8073  09FB  29FD               	goto	u4151
  8074  09FC  29FE               	goto	u4150
  8075  09FD                     u4151:
  8076  09FD  29B4               	goto	l4082
  8077  09FE                     u4150:
  8078  09FE  29FF               	goto	l302
  8079                           	
  8080  09FF                     l297:	
  8081                           	line	440
  8082                           	
  8083  09FF                     l302:	
  8084  09FF  0008               	return
  8085                           	opt stack 0
  8086                           GLOBAL	__end_of_lcd_dis_num
  8087  0A00                     	__end_of_lcd_dis_num:
  8088                           	signat	_lcd_dis_num,8312
  8089                           	global	_lcd_char
  8090                           
  8091 ;; *************** function _lcd_char *****************
  8092 ;; Defined at:
  8093 ;;		line 350 in file "PR23.c"
  8094 ;; Parameters:    Size  Location     Type
  8095 ;;  data            1    wreg     unsigned char 
  8096 ;; Auto vars:     Size  Location     Type
  8097 ;;  data            1    8[BANK0 ] unsigned char 
  8098 ;; Return value:  Size  Location     Type
  8099 ;;		None               void
  8100 ;; Registers used:
  8101 ;;		wreg, status,2, status,0, pclath, cstack
  8102 ;; Tracked objects:
  8103 ;;		On entry : 0/0
  8104 ;;		On exit  : 0/0
  8105 ;;		Unchanged: 0/0
  8106 ;; Data sizes:     COMMON   BANK0   BANK1   BANK3   BANK2
  8107 ;;      Params:         0       0       0       0       0
  8108 ;;      Locals:         0       1       0       0       0
  8109 ;;      Temps:          0       0       0       0       0
  8110 ;;      Totals:         0       1       0       0       0
  8111 ;;Total ram usage:        1 bytes
  8112 ;; Hardware stack levels used:    1
  8113 ;; Hardware stack levels required when called:    3
  8114 ;; This function calls:
  8115 ;;		_delay_ms
  8116 ;;		_e_pulse
  8117 ;; This function is called by:
  8118 ;;		_lcd_clr_line
  8119 ;;		_lcd_string
  8120 ;;		_lcd_dis_num
  8121 ;;		_analog_sen
  8122 ;; This function uses a non-reentrant model
  8123 ;;
  8124                           psect	text1399,local,class=CODE,delta=2,merge=1
  8125                           global __ptext1399
  8126  14DC                     __ptext1399:	;psect for function _lcd_char
  8127                           psect	text1399
  8128                           	file	"PR23.c"
  8129                           	line	350
  8130                           	global	__size_of_lcd_char
  8131  0019                     	__size_of_lcd_char	equ	__end_of_lcd_char-_lcd_char
  8132                           	
  8133  14DC                     _lcd_char:	
  8134                           	opt	stack 2
  8135                           ; Regs used in _lcd_char: [wreg+status,2+status,0+pclath+cstack]
  8136                           ;lcd_char@data stored from wreg
  8137  14DC  1283               	bcf	status, 5	;RP0=0, select bank0
  8138  14DD  1303               	bcf	status, 6	;RP1=0, select bank0
  8139  14DE  00A8               	movwf	(lcd_char@data)
  8140                           	line	351
  8141                           	
  8142  14DF                     l4036:	
  8143                           ;PR23.c: 351: RB7 = 1;
  8144  14DF  1786               	bsf	(55/8),(55)&7	;volatile
  8145                           	line	352
  8146                           	
  8147  14E0                     l4038:	
  8148                           ;PR23.c: 352: PORTD = data;
  8149  14E0  0828               	movf	(lcd_char@data),w
  8150  14E1  0088               	movwf	(8)	;volatile
  8151                           	line	353
  8152                           	
  8153  14E2                     l4040:	
  8154                           ;PR23.c: 353: delay_ms(1);
  8155  14E2  3000               	movlw	0
  8156  14E3  00A3               	movwf	(?_delay_ms+3)
  8157  14E4  3000               	movlw	0
  8158  14E5  00A2               	movwf	(?_delay_ms+2)
  8159  14E6  3000               	movlw	0
  8160  14E7  00A1               	movwf	(?_delay_ms+1)
  8161  14E8  3001               	movlw	01h
  8162  14E9  00A0               	movwf	(?_delay_ms)
  8163                           
  8164  14EA  160A  118A  26CD   	fcall	_delay_ms
              160A  118A         
  8165                           	line	354
  8166                           	
  8167  14EF                     l4042:	
  8168                           ;PR23.c: 354: e_pulse();
  8169  14EF  160A  118A  2548   	fcall	_e_pulse
              160A  118A         
  8170                           	line	355
  8171                           	
  8172  14F4                     l255:	
  8173  14F4  0008               	return
  8174                           	opt stack 0
  8175                           GLOBAL	__end_of_lcd_char
  8176  14F5                     	__end_of_lcd_char:
  8177                           	signat	_lcd_char,4216
  8178                           	global	_e_pulse
  8179                           
  8180 ;; *************** function _e_pulse *****************
  8181 ;; Defined at:
  8182 ;;		line 358 in file "PR23.c"
  8183 ;; Parameters:    Size  Location     Type
  8184 ;;		None
  8185 ;; Auto vars:     Size  Location     Type
  8186 ;;		None
  8187 ;; Return value:  Size  Location     Type
  8188 ;;		None               void
  8189 ;; Registers used:
  8190 ;;		wreg, status,2, status,0, pclath, cstack
  8191 ;; Tracked objects:
  8192 ;;		On entry : 0/0
  8193 ;;		On exit  : 0/0
  8194 ;;		Unchanged: 0/0
  8195 ;; Data sizes:     COMMON   BANK0   BANK1   BANK3   BANK2
  8196 ;;      Params:         0       0       0       0       0
  8197 ;;      Locals:         0       0       0       0       0
  8198 ;;      Temps:          0       0       0       0       0
  8199 ;;      Totals:         0       0       0       0       0
  8200 ;;Total ram usage:        0 bytes
  8201 ;; Hardware stack levels used:    1
  8202 ;; Hardware stack levels required when called:    2
  8203 ;; This function calls:
  8204 ;;		_delay_ms
  8205 ;; This function is called by:
  8206 ;;		_lcd_config
  8207 ;;		_lcd_char
  8208 ;; This function uses a non-reentrant model
  8209 ;;
  8210                           psect	text1400,local,class=CODE,delta=2,merge=1
  8211                           global __ptext1400
  8212  1548                     __ptext1400:	;psect for function _e_pulse
  8213                           psect	text1400
  8214                           	file	"PR23.c"
  8215                           	line	358
  8216                           	global	__size_of_e_pulse
  8217  0021                     	__size_of_e_pulse	equ	__end_of_e_pulse-_e_pulse
  8218                           	
  8219  1548                     _e_pulse:	
  8220                           	opt	stack 2
  8221                           ; Regs used in _e_pulse: [wreg+status,2+status,0+pclath+cstack]
  8222                           	line	359
  8223                           	
  8224  1548                     l4030:	
  8225                           ;PR23.c: 359: RB6 = 1;
  8226  1548  1283               	bcf	status, 5	;RP0=0, select bank0
  8227  1549  1303               	bcf	status, 6	;RP1=0, select bank0
  8228  154A  1706               	bsf	(54/8),(54)&7	;volatile
  8229                           	line	360
  8230                           	
  8231  154B                     l4032:	
  8232                           ;PR23.c: 360: delay_ms(1);
  8233  154B  3000               	movlw	0
  8234  154C  00A3               	movwf	(?_delay_ms+3)
  8235  154D  3000               	movlw	0
  8236  154E  00A2               	movwf	(?_delay_ms+2)
  8237  154F  3000               	movlw	0
  8238  1550  00A1               	movwf	(?_delay_ms+1)
  8239  1551  3001               	movlw	01h
  8240  1552  00A0               	movwf	(?_delay_ms)
  8241                           
  8242  1553  160A  118A  26CD   	fcall	_delay_ms
              160A  118A         
  8243                           	line	361
  8244                           	
  8245  1558                     l4034:	
  8246                           ;PR23.c: 361: RB6 = 0;
  8247  1558  1283               	bcf	status, 5	;RP0=0, select bank0
  8248  1559  1303               	bcf	status, 6	;RP1=0, select bank0
  8249  155A  1306               	bcf	(54/8),(54)&7	;volatile
  8250                           	line	362
  8251                           ;PR23.c: 362: delay_ms(1);
  8252  155B  3000               	movlw	0
  8253  155C  00A3               	movwf	(?_delay_ms+3)
  8254  155D  3000               	movlw	0
  8255  155E  00A2               	movwf	(?_delay_ms+2)
  8256  155F  3000               	movlw	0
  8257  1560  00A1               	movwf	(?_delay_ms+1)
  8258  1561  3001               	movlw	01h
  8259  1562  00A0               	movwf	(?_delay_ms)
  8260                           
  8261  1563  160A  118A  26CD   	fcall	_delay_ms
              160A  118A         
  8262                           	line	363
  8263                           	
  8264  1568                     l258:	
  8265  1568  0008               	return
  8266                           	opt stack 0
  8267                           GLOBAL	__end_of_e_pulse
  8268  1569                     	__end_of_e_pulse:
  8269                           	signat	_e_pulse,88
  8270                           	global	_uart_init
  8271                           
  8272 ;; *************** function _uart_init *****************
  8273 ;; Defined at:
  8274 ;;		line 446 in file "PR23.c"
  8275 ;; Parameters:    Size  Location     Type
  8276 ;;		None
  8277 ;; Auto vars:     Size  Location     Type
  8278 ;;		None
  8279 ;; Return value:  Size  Location     Type
  8280 ;;		None               void
  8281 ;; Registers used:
  8282 ;;		wreg
  8283 ;; Tracked objects:
  8284 ;;		On entry : 0/0
  8285 ;;		On exit  : 0/0
  8286 ;;		Unchanged: 0/0
  8287 ;; Data sizes:     COMMON   BANK0   BANK1   BANK3   BANK2
  8288 ;;      Params:         0       0       0       0       0
  8289 ;;      Locals:         0       0       0       0       0
  8290 ;;      Temps:          0       0       0       0       0
  8291 ;;      Totals:         0       0       0       0       0
  8292 ;;Total ram usage:        0 bytes
  8293 ;; Hardware stack levels used:    1
  8294 ;; Hardware stack levels required when called:    1
  8295 ;; This function calls:
  8296 ;;		Nothing
  8297 ;; This function is called by:
  8298 ;;		_ultrasonic
  8299 ;;		_wireless_xbee
  8300 ;;		_SKPS_PScon
  8301 ;; This function uses a non-reentrant model
  8302 ;;
  8303                           psect	text1401,local,class=CODE,delta=2,merge=1
  8304                           global __ptext1401
  8305  00E2                     __ptext1401:	;psect for function _uart_init
  8306                           psect	text1401
  8307                           	file	"PR23.c"
  8308                           	line	446
  8309                           	global	__size_of_uart_init
  8310  001A                     	__size_of_uart_init	equ	__end_of_uart_init-_uart_init
  8311                           	
  8312  00E2                     _uart_init:	
  8313                           	opt	stack 5
  8314                           ; Regs used in _uart_init: [wreg]
  8315                           	line	448
  8316                           	
  8317  00E2                     l4100:	
  8318                           ;PR23.c: 448: SPBRG = 0x81;
  8319  00E2  3081               	movlw	(081h)
  8320  00E3  1683               	bsf	status, 5	;RP0=1, select bank1
  8321  00E4  1303               	bcf	status, 6	;RP1=0, select bank1
  8322  00E5  0099               	movwf	(153)^080h	;volatile
  8323                           	line	449
  8324                           	
  8325  00E6                     l4102:	
  8326                           ;PR23.c: 449: BRGH = 1;
  8327  00E6  1518               	bsf	(1218/8)^080h,(1218)&7	;volatile
  8328                           	line	450
  8329                           	
  8330  00E7                     l4104:	
  8331                           ;PR23.c: 450: TXEN = 1;
  8332  00E7  1698               	bsf	(1221/8)^080h,(1221)&7	;volatile
  8333                           	line	451
  8334                           	
  8335  00E8                     l4106:	
  8336                           ;PR23.c: 451: TX9 = 0;
  8337  00E8  1318               	bcf	(1222/8)^080h,(1222)&7	;volatile
  8338                           	line	452
  8339                           	
  8340  00E9                     l4108:	
  8341                           ;PR23.c: 452: CREN = 1;
  8342  00E9  1283               	bcf	status, 5	;RP0=0, select bank0
  8343  00EA  1303               	bcf	status, 6	;RP1=0, select bank0
  8344  00EB  1618               	bsf	(196/8),(196)&7	;volatile
  8345                           	line	453
  8346                           	
  8347  00EC                     l4110:	
  8348                           ;PR23.c: 453: SPEN = 1;
  8349  00EC  1798               	bsf	(199/8),(199)&7	;volatile
  8350                           	line	454
  8351                           	
  8352  00ED                     l4112:	
  8353                           ;PR23.c: 454: RX9 = 0;
  8354  00ED  1318               	bcf	(198/8),(198)&7	;volatile
  8355                           	line	455
  8356                           	
  8357  00EE                     l4114:	
  8358                           ;PR23.c: 455: if(OERR == 1)
  8359  00EE  1C98               	btfss	(193/8),(193)&7	;volatile
  8360  00EF  28F1               	goto	u4161
  8361  00F0  28F2               	goto	u4160
  8362  00F1                     u4161:
  8363  00F1  28F5               	goto	l4118
  8364  00F2                     u4160:
  8365                           	line	457
  8366                           	
  8367  00F2                     l4116:	
  8368                           ;PR23.c: 456: {
  8369                           ;PR23.c: 457: CREN = 0;
  8370  00F2  1218               	bcf	(196/8),(196)&7	;volatile
  8371                           	line	458
  8372                           ;PR23.c: 458: CREN = 1;
  8373  00F3  1618               	bsf	(196/8),(196)&7	;volatile
  8374  00F4  28F5               	goto	l4118
  8375                           	line	459
  8376                           	
  8377  00F5                     l305:	
  8378                           	line	460
  8379                           	
  8380  00F5                     l4118:	
  8381                           ;PR23.c: 459: }
  8382                           ;PR23.c: 460: if(RCREG);
  8383  00F5  081A               	movf	(26),w	;volatile
  8384  00F6  28F7               	goto	l4120
  8385                           	
  8386  00F7                     l306:	
  8387                           	line	461
  8388                           	
  8389  00F7                     l4120:	
  8390                           ;PR23.c: 461: if(RCREG);
  8391  00F7  081A               	movf	(26),w	;volatile
  8392                           	
  8393  00F8                     l307:	
  8394                           	line	462
  8395                           ;PR23.c: 462: RCIE = 0;
  8396  00F8  1683               	bsf	status, 5	;RP0=1, select bank1
  8397  00F9  1303               	bcf	status, 6	;RP1=0, select bank1
  8398  00FA  128C               	bcf	(1125/8)^080h,(1125)&7	;volatile
  8399                           	line	463
  8400                           	
  8401  00FB                     l308:	
  8402  00FB  0008               	return
  8403                           	opt stack 0
  8404                           GLOBAL	__end_of_uart_init
  8405  00FC                     	__end_of_uart_init:
  8406                           	signat	_uart_init,88
  8407                           	global	_uart_string_nl
  8408                           
  8409 ;; *************** function _uart_string_nl *****************
  8410 ;; Defined at:
  8411 ;;		line 484 in file "PR23.c"
  8412 ;; Parameters:    Size  Location     Type
  8413 ;;  string          2    3[BANK0 ] PTR const unsigned char 
  8414 ;;		 -> STR_45(17), STR_43(11), STR_41(12), STR_39(10), 
  8415 ;;		 -> STR_37(9), STR_35(33), STR_34(21), STR_33(22), 
  8416 ;;		 -> STR_32(20), STR_31(19), STR_30(29), STR_29(10), 
  8417 ;; Auto vars:     Size  Location     Type
  8418 ;;		None
  8419 ;; Return value:  Size  Location     Type
  8420 ;;		None               void
  8421 ;; Registers used:
  8422 ;;		wreg, fsr0l, fsr0h, status,2, status,0, btemp+1, pclath, cstack
  8423 ;; Tracked objects:
  8424 ;;		On entry : 0/0
  8425 ;;		On exit  : 0/0
  8426 ;;		Unchanged: 0/0
  8427 ;; Data sizes:     COMMON   BANK0   BANK1   BANK3   BANK2
  8428 ;;      Params:         0       2       0       0       0
  8429 ;;      Locals:         0       0       0       0       0
  8430 ;;      Temps:          0       0       0       0       0
  8431 ;;      Totals:         0       2       0       0       0
  8432 ;;Total ram usage:        2 bytes
  8433 ;; Hardware stack levels used:    1
  8434 ;; Hardware stack levels required when called:    3
  8435 ;; This function calls:
  8436 ;;		_uart_string
  8437 ;;		_uart_send
  8438 ;; This function is called by:
  8439 ;;		_wireless_xbee
  8440 ;; This function uses a non-reentrant model
  8441 ;;
  8442                           psect	text1402,local,class=CODE,delta=2,merge=1
  8443                           global __ptext1402
  8444  150E                     __ptext1402:	;psect for function _uart_string_nl
  8445                           psect	text1402
  8446                           	file	"PR23.c"
  8447                           	line	484
  8448                           	global	__size_of_uart_string_nl
  8449  001A                     	__size_of_uart_string_nl	equ	__end_of_uart_string_nl-_uart_string_nl
  8450                           	
  8451  150E                     _uart_string_nl:	
  8452                           	opt	stack 3
  8453                           ; Regs used in _uart_string_nl: [wreg-fsr0h+status,2+status,0+btemp+1+pclath+cstack]
  8454                           	line	485
  8455                           	
  8456  150E                     l4134:	
  8457                           ;PR23.c: 485: uart_string(string);
  8458  150E  1283               	bcf	status, 5	;RP0=0, select bank0
  8459  150F  1303               	bcf	status, 6	;RP1=0, select bank0
  8460  1510  0824               	movf	(uart_string_nl@string+1),w
  8461  1511  01A2               	clrf	(?_uart_string+1)
  8462  1512  07A2               	addwf	(?_uart_string+1)
  8463  1513  0823               	movf	(uart_string_nl@string),w
  8464  1514  01A1               	clrf	(?_uart_string)
  8465  1515  07A1               	addwf	(?_uart_string)
  8466                           
  8467  1516  160A  118A  2569   	fcall	_uart_string
              160A  118A         
  8468                           	line	486
  8469                           	
  8470  151B                     l4136:	
  8471                           ;PR23.c: 486: uart_send('\r');
  8472  151B  300D               	movlw	(0Dh)
  8473  151C  160A  118A  2481   	fcall	_uart_send
              160A  118A         
  8474                           	line	487
  8475                           	
  8476  1521                     l4138:	
  8477                           ;PR23.c: 487: uart_send('\n');
  8478  1521  300A               	movlw	(0Ah)
  8479  1522  160A  118A  2481   	fcall	_uart_send
              160A  118A         
  8480                           	line	488
  8481                           	
  8482  1527                     l323:	
  8483  1527  0008               	return
  8484                           	opt stack 0
  8485                           GLOBAL	__end_of_uart_string_nl
  8486  1528                     	__end_of_uart_string_nl:
  8487                           	signat	_uart_string_nl,4216
  8488                           	global	_uart_string
  8489                           
  8490 ;; *************** function _uart_string *****************
  8491 ;; Defined at:
  8492 ;;		line 474 in file "PR23.c"
  8493 ;; Parameters:    Size  Location     Type
  8494 ;;  string          2    1[BANK0 ] PTR const unsigned char 
  8495 ;;		 -> STR_45(17), STR_43(11), STR_41(12), STR_39(10), 
  8496 ;;		 -> STR_37(9), STR_35(33), STR_34(21), STR_33(22), 
  8497 ;;		 -> STR_32(20), STR_31(19), STR_30(29), STR_29(10), 
  8498 ;; Auto vars:     Size  Location     Type
  8499 ;;		None
  8500 ;; Return value:  Size  Location     Type
  8501 ;;		None               void
  8502 ;; Registers used:
  8503 ;;		wreg, fsr0l, fsr0h, status,2, status,0, btemp+1, pclath, cstack
  8504 ;; Tracked objects:
  8505 ;;		On entry : 0/0
  8506 ;;		On exit  : 0/0
  8507 ;;		Unchanged: 0/0
  8508 ;; Data sizes:     COMMON   BANK0   BANK1   BANK3   BANK2
  8509 ;;      Params:         0       2       0       0       0
  8510 ;;      Locals:         0       0       0       0       0
  8511 ;;      Temps:          0       0       0       0       0
  8512 ;;      Totals:         0       2       0       0       0
  8513 ;;Total ram usage:        2 bytes
  8514 ;; Hardware stack levels used:    1
  8515 ;; Hardware stack levels required when called:    2
  8516 ;; This function calls:
  8517 ;;		_uart_send
  8518 ;; This function is called by:
  8519 ;;		_uart_string_nl
  8520 ;; This function uses a non-reentrant model
  8521 ;;
  8522                           psect	text1403,local,class=CODE,delta=2,merge=1
  8523                           global __ptext1403
  8524  1569                     __ptext1403:	;psect for function _uart_string
  8525                           psect	text1403
  8526                           	file	"PR23.c"
  8527                           	line	474
  8528                           	global	__size_of_uart_string
  8529  002A                     	__size_of_uart_string	equ	__end_of_uart_string-_uart_string
  8530                           	
  8531  1569                     _uart_string:	
  8532                           	opt	stack 3
  8533                           ; Regs used in _uart_string: [wreg-fsr0h+status,2+status,0+btemp+1+pclath+cstack]
  8534                           	line	475
  8535                           	
  8536  1569                     l4126:	
  8537                           ;PR23.c: 475: while (*string != '\0')
  8538  1569  2D81               	goto	l4132
  8539                           	
  8540  156A                     l318:	
  8541                           	line	477
  8542                           	
  8543  156A                     l4128:	
  8544                           ;PR23.c: 476: {
  8545                           ;PR23.c: 477: uart_send(*string++);
  8546  156A  1283               	bcf	status, 5	;RP0=0, select bank0
  8547  156B  1303               	bcf	status, 6	;RP1=0, select bank0
  8548  156C  0822               	movf	(uart_string@string+1),w
  8549  156D  00FF               	movwf	btemp+1
  8550  156E  0821               	movf	(uart_string@string),w
  8551  156F  0084               	movwf	fsr0
  8552  1570  120A  118A  2100   	fcall	stringtab
              160A  118A         
  8553  1575  160A  118A  2481   	fcall	_uart_send
              160A  118A         
  8554                           	
  8555  157A                     l4130:	
  8556  157A  3001               	movlw	01h
  8557  157B  1283               	bcf	status, 5	;RP0=0, select bank0
  8558  157C  1303               	bcf	status, 6	;RP1=0, select bank0
  8559  157D  07A1               	addwf	(uart_string@string),f
  8560  157E  1803               	skipnc
  8561  157F  0AA2               	incf	(uart_string@string+1),f
  8562  1580  2D81               	goto	l4132
  8563                           	line	479
  8564                           	
  8565  1581                     l317:	
  8566                           	line	475
  8567                           	
  8568  1581                     l4132:	
  8569  1581  1283               	bcf	status, 5	;RP0=0, select bank0
  8570  1582  1303               	bcf	status, 6	;RP1=0, select bank0
  8571  1583  0822               	movf	(uart_string@string+1),w
  8572  1584  00FF               	movwf	btemp+1
  8573  1585  0821               	movf	(uart_string@string),w
  8574  1586  0084               	movwf	fsr0
  8575  1587  120A  118A  2100   	fcall	stringtab
              160A  118A         
  8576  158C  3800               	iorlw	0
  8577  158D  1D03               	skipz
  8578  158E  2D90               	goto	u4181
  8579  158F  2D91               	goto	u4180
  8580  1590                     u4181:
  8581  1590  2D6A               	goto	l4128
  8582  1591                     u4180:
  8583  1591  2D92               	goto	l320
  8584                           	
  8585  1592                     l319:	
  8586                           	line	480
  8587                           	
  8588  1592                     l320:	
  8589  1592  0008               	return
  8590                           	opt stack 0
  8591                           GLOBAL	__end_of_uart_string
  8592  1593                     	__end_of_uart_string:
  8593                           	signat	_uart_string,4216
  8594                           	global	_skps
  8595                           
  8596 ;; *************** function _skps *****************
  8597 ;; Defined at:
  8598 ;;		line 509 in file "PR23.c"
  8599 ;; Parameters:    Size  Location     Type
  8600 ;;  data            1    wreg     unsigned char 
  8601 ;; Auto vars:     Size  Location     Type
  8602 ;;  data            1    1[BANK0 ] unsigned char 
  8603 ;; Return value:  Size  Location     Type
  8604 ;;                  1    wreg      unsigned char 
  8605 ;; Registers used:
  8606 ;;		wreg, status,2, status,0, pclath, cstack
  8607 ;; Tracked objects:
  8608 ;;		On entry : 0/0
  8609 ;;		On exit  : 0/0
  8610 ;;		Unchanged: 0/0
  8611 ;; Data sizes:     COMMON   BANK0   BANK1   BANK3   BANK2
  8612 ;;      Params:         0       0       0       0       0
  8613 ;;      Locals:         0       1       0       0       0
  8614 ;;      Temps:          0       0       0       0       0
  8615 ;;      Totals:         0       1       0       0       0
  8616 ;;Total ram usage:        1 bytes
  8617 ;; Hardware stack levels used:    1
  8618 ;; Hardware stack levels required when called:    2
  8619 ;; This function calls:
  8620 ;;		_uart_send
  8621 ;;		_uart_rec
  8622 ;; This function is called by:
  8623 ;;		_SKPS_PScon
  8624 ;; This function uses a non-reentrant model
  8625 ;;
  8626                           psect	text1404,local,class=CODE,delta=2,merge=1
  8627                           global __ptext1404
  8628  148D                     __ptext1404:	;psect for function _skps
  8629                           psect	text1404
  8630                           	file	"PR23.c"
  8631                           	line	509
  8632                           	global	__size_of_skps
  8633  0010                     	__size_of_skps	equ	__end_of_skps-_skps
  8634                           	
  8635  148D                     _skps:	
  8636                           	opt	stack 4
  8637                           ; Regs used in _skps: [wreg+status,2+status,0+pclath+cstack]
  8638                           ;skps@data stored from wreg
  8639  148D  1283               	bcf	status, 5	;RP0=0, select bank0
  8640  148E  1303               	bcf	status, 6	;RP1=0, select bank0
  8641  148F  00A1               	movwf	(skps@data)
  8642                           	line	510
  8643                           	
  8644  1490                     l4152:	
  8645                           ;PR23.c: 510: uart_send(data);
  8646  1490  0821               	movf	(skps@data),w
  8647  1491  160A  118A  2481   	fcall	_uart_send
              160A  118A         
  8648                           	line	511
  8649                           	
  8650  1496                     l4154:	
  8651                           ;PR23.c: 511: return uart_rec();
  8652  1496  160A  118A  24B0   	fcall	_uart_rec
              160A  118A         
  8653  149B  2C9C               	goto	l335
  8654                           	
  8655  149C                     l4156:	
  8656                           	line	512
  8657                           	
  8658  149C                     l335:	
  8659  149C  0008               	return
  8660                           	opt stack 0
  8661                           GLOBAL	__end_of_skps
  8662  149D                     	__end_of_skps:
  8663                           	signat	_skps,4217
  8664                           	global	_uart_send
  8665                           
  8666 ;; *************** function _uart_send *****************
  8667 ;; Defined at:
  8668 ;;		line 467 in file "PR23.c"
  8669 ;; Parameters:    Size  Location     Type
  8670 ;;  data            1    wreg     unsigned char 
  8671 ;; Auto vars:     Size  Location     Type
  8672 ;;  data            1    0[BANK0 ] unsigned char 
  8673 ;; Return value:  Size  Location     Type
  8674 ;;		None               void
  8675 ;; Registers used:
  8676 ;;		wreg
  8677 ;; Tracked objects:
  8678 ;;		On entry : 0/0
  8679 ;;		On exit  : 0/0
  8680 ;;		Unchanged: 0/0
  8681 ;; Data sizes:     COMMON   BANK0   BANK1   BANK3   BANK2
  8682 ;;      Params:         0       0       0       0       0
  8683 ;;      Locals:         0       1       0       0       0
  8684 ;;      Temps:          0       0       0       0       0
  8685 ;;      Totals:         0       1       0       0       0
  8686 ;;Total ram usage:        1 bytes
  8687 ;; Hardware stack levels used:    1
  8688 ;; Hardware stack levels required when called:    1
  8689 ;; This function calls:
  8690 ;;		Nothing
  8691 ;; This function is called by:
  8692 ;;		_uart_string
  8693 ;;		_uart_string_nl
  8694 ;;		_skps
  8695 ;;		_skps_vibrate
  8696 ;; This function uses a non-reentrant model
  8697 ;;
  8698                           psect	text1405,local,class=CODE,delta=2,merge=1
  8699                           global __ptext1405
  8700  1481                     __ptext1405:	;psect for function _uart_send
  8701                           psect	text1405
  8702                           	file	"PR23.c"
  8703                           	line	467
  8704                           	global	__size_of_uart_send
  8705  000C                     	__size_of_uart_send	equ	__end_of_uart_send-_uart_send
  8706                           	
  8707  1481                     _uart_send:	
  8708                           	opt	stack 4
  8709                           ; Regs used in _uart_send: [wreg]
  8710                           ;uart_send@data stored from wreg
  8711  1481  1283               	bcf	status, 5	;RP0=0, select bank0
  8712  1482  1303               	bcf	status, 6	;RP1=0, select bank0
  8713  1483  00A0               	movwf	(uart_send@data)
  8714                           	line	468
  8715                           	
  8716  1484                     l4122:	
  8717                           ;PR23.c: 468: while(TXIF == 0);
  8718  1484  2C85               	goto	l311
  8719                           	
  8720  1485                     l312:	
  8721                           	
  8722  1485                     l311:	
  8723  1485  1E0C               	btfss	(100/8),(100)&7	;volatile
  8724  1486  2C88               	goto	u4171
  8725  1487  2C89               	goto	u4170
  8726  1488                     u4171:
  8727  1488  2C85               	goto	l311
  8728  1489                     u4170:
  8729  1489  2C8A               	goto	l4124
  8730                           	
  8731  148A                     l313:	
  8732                           	line	469
  8733                           	
  8734  148A                     l4124:	
  8735                           ;PR23.c: 469: TXREG = data;
  8736  148A  0820               	movf	(uart_send@data),w
  8737  148B  0099               	movwf	(25)	;volatile
  8738                           	line	470
  8739                           	
  8740  148C                     l314:	
  8741  148C  0008               	return
  8742                           	opt stack 0
  8743                           GLOBAL	__end_of_uart_send
  8744  148D                     	__end_of_uart_send:
  8745                           	signat	_uart_send,4216
  8746                           	global	_uart_rec
  8747                           
  8748 ;; *************** function _uart_rec *****************
  8749 ;; Defined at:
  8750 ;;		line 492 in file "PR23.c"
  8751 ;; Parameters:    Size  Location     Type
  8752 ;;		None
  8753 ;; Auto vars:     Size  Location     Type
  8754 ;;		None
  8755 ;; Return value:  Size  Location     Type
  8756 ;;                  1    wreg      unsigned char 
  8757 ;; Registers used:
  8758 ;;		wreg
  8759 ;; Tracked objects:
  8760 ;;		On entry : 0/0
  8761 ;;		On exit  : 0/0
  8762 ;;		Unchanged: 0/0
  8763 ;; Data sizes:     COMMON   BANK0   BANK1   BANK3   BANK2
  8764 ;;      Params:         0       0       0       0       0
  8765 ;;      Locals:         0       0       0       0       0
  8766 ;;      Temps:          0       0       0       0       0
  8767 ;;      Totals:         0       0       0       0       0
  8768 ;;Total ram usage:        0 bytes
  8769 ;; Hardware stack levels used:    1
  8770 ;; Hardware stack levels required when called:    1
  8771 ;; This function calls:
  8772 ;;		Nothing
  8773 ;; This function is called by:
  8774 ;;		_skps
  8775 ;;		_wireless_xbee
  8776 ;; This function uses a non-reentrant model
  8777 ;;
  8778                           psect	text1406,local,class=CODE,delta=2,merge=1
  8779                           global __ptext1406
  8780  14B0                     __ptext1406:	;psect for function _uart_rec
  8781                           psect	text1406
  8782                           	file	"PR23.c"
  8783                           	line	492
  8784                           	global	__size_of_uart_rec
  8785  0016                     	__size_of_uart_rec	equ	__end_of_uart_rec-_uart_rec
  8786                           	
  8787  14B0                     _uart_rec:	
  8788                           	opt	stack 4
  8789                           ; Regs used in _uart_rec: [wreg]
  8790                           	line	493
  8791                           	
  8792  14B0                     l4140:	
  8793                           ;PR23.c: 493: if(OERR == 1)
  8794  14B0  1283               	bcf	status, 5	;RP0=0, select bank0
  8795  14B1  1303               	bcf	status, 6	;RP1=0, select bank0
  8796  14B2  1C98               	btfss	(193/8),(193)&7	;volatile
  8797  14B3  2CB5               	goto	u4191
  8798  14B4  2CB6               	goto	u4190
  8799  14B5                     u4191:
  8800  14B5  2CBE               	goto	l329
  8801  14B6                     u4190:
  8802                           	line	495
  8803                           	
  8804  14B6                     l4142:	
  8805                           ;PR23.c: 494: {
  8806                           ;PR23.c: 495: CREN = 0;
  8807  14B6  1218               	bcf	(196/8),(196)&7	;volatile
  8808                           	line	496
  8809                           ;PR23.c: 496: CREN = 1;
  8810  14B7  1618               	bsf	(196/8),(196)&7	;volatile
  8811                           	line	497
  8812                           	
  8813  14B8                     l4144:	
  8814                           ;PR23.c: 497: if(RCREG);
  8815  14B8  081A               	movf	(26),w	;volatile
  8816  14B9  2CBA               	goto	l4146
  8817                           	
  8818  14BA                     l327:	
  8819                           	line	498
  8820                           	
  8821  14BA                     l4146:	
  8822                           ;PR23.c: 498: if(RCREG);
  8823  14BA  081A               	movf	(26),w	;volatile
  8824  14BB  2CBE               	goto	l329
  8825                           	
  8826  14BC                     l328:	
  8827  14BC  2CBE               	goto	l329
  8828                           	line	499
  8829                           	
  8830  14BD                     l326:	
  8831                           	line	500
  8832                           ;PR23.c: 499: }
  8833                           ;PR23.c: 500: while(RCIF==0);
  8834  14BD  2CBE               	goto	l329
  8835                           	
  8836  14BE                     l330:	
  8837                           	
  8838  14BE                     l329:	
  8839  14BE  1E8C               	btfss	(101/8),(101)&7	;volatile
  8840  14BF  2CC1               	goto	u4201
  8841  14C0  2CC2               	goto	u4200
  8842  14C1                     u4201:
  8843  14C1  2CBE               	goto	l329
  8844  14C2                     u4200:
  8845  14C2  2CC3               	goto	l4148
  8846                           	
  8847  14C3                     l331:	
  8848                           	line	501
  8849                           	
  8850  14C3                     l4148:	
  8851                           ;PR23.c: 501: return RCREG;
  8852  14C3  081A               	movf	(26),w	;volatile
  8853  14C4  2CC5               	goto	l332
  8854                           	
  8855  14C5                     l4150:	
  8856                           	line	502
  8857                           	
  8858  14C5                     l332:	
  8859  14C5  0008               	return
  8860                           	opt stack 0
  8861                           GLOBAL	__end_of_uart_rec
  8862  14C6                     	__end_of_uart_rec:
  8863                           	signat	_uart_rec,89
  8864                           	global	_adc_init
  8865                           
  8866 ;; *************** function _adc_init *****************
  8867 ;; Defined at:
  8868 ;;		line 523 in file "PR23.c"
  8869 ;; Parameters:    Size  Location     Type
  8870 ;;		None
  8871 ;; Auto vars:     Size  Location     Type
  8872 ;;		None
  8873 ;; Return value:  Size  Location     Type
  8874 ;;		None               void
  8875 ;; Registers used:
  8876 ;;		wreg
  8877 ;; Tracked objects:
  8878 ;;		On entry : 0/0
  8879 ;;		On exit  : 0/0
  8880 ;;		Unchanged: 0/0
  8881 ;; Data sizes:     COMMON   BANK0   BANK1   BANK3   BANK2
  8882 ;;      Params:         0       0       0       0       0
  8883 ;;      Locals:         0       0       0       0       0
  8884 ;;      Temps:          0       0       0       0       0
  8885 ;;      Totals:         0       0       0       0       0
  8886 ;;Total ram usage:        0 bytes
  8887 ;; Hardware stack levels used:    1
  8888 ;; Hardware stack levels required when called:    1
  8889 ;; This function calls:
  8890 ;;		Nothing
  8891 ;; This function is called by:
  8892 ;;		_init
  8893 ;; This function uses a non-reentrant model
  8894 ;;
  8895                           psect	text1407,local,class=CODE,delta=2,merge=1
  8896                           global __ptext1407
  8897  146E                     __ptext1407:	;psect for function _adc_init
  8898                           psect	text1407
  8899                           	file	"PR23.c"
  8900                           	line	523
  8901                           	global	__size_of_adc_init
  8902  0009                     	__size_of_adc_init	equ	__end_of_adc_init-_adc_init
  8903                           	
  8904  146E                     _adc_init:	
  8905                           	opt	stack 5
  8906                           ; Regs used in _adc_init: [wreg]
  8907                           	line	525
  8908                           	
  8909  146E                     l4160:	
  8910                           ;PR23.c: 525: ADCON0 = 0b10000000;
  8911  146E  3080               	movlw	(080h)
  8912  146F  1283               	bcf	status, 5	;RP0=0, select bank0
  8913  1470  1303               	bcf	status, 6	;RP1=0, select bank0
  8914  1471  009F               	movwf	(31)	;volatile
  8915                           	line	526
  8916                           ;PR23.c: 526: ADCON1 = 0b10000100;
  8917  1472  3084               	movlw	(084h)
  8918  1473  1683               	bsf	status, 5	;RP0=1, select bank1
  8919  1474  1303               	bcf	status, 6	;RP1=0, select bank1
  8920  1475  009F               	movwf	(159)^080h	;volatile
  8921                           	line	528
  8922                           	
  8923  1476                     l341:	
  8924  1476  0008               	return
  8925                           	opt stack 0
  8926                           GLOBAL	__end_of_adc_init
  8927  1477                     	__end_of_adc_init:
  8928                           	signat	_adc_init,88
  8929                           	global	_timer1_init
  8930                           
  8931 ;; *************** function _timer1_init *****************
  8932 ;; Defined at:
  8933 ;;		line 566 in file "PR23.c"
  8934 ;; Parameters:    Size  Location     Type
  8935 ;;		None
  8936 ;; Auto vars:     Size  Location     Type
  8937 ;;		None
  8938 ;; Return value:  Size  Location     Type
  8939 ;;		None               void
  8940 ;; Registers used:
  8941 ;;		wreg, status,2
  8942 ;; Tracked objects:
  8943 ;;		On entry : 0/0
  8944 ;;		On exit  : 0/0
  8945 ;;		Unchanged: 0/0
  8946 ;; Data sizes:     COMMON   BANK0   BANK1   BANK3   BANK2
  8947 ;;      Params:         0       0       0       0       0
  8948 ;;      Locals:         0       0       0       0       0
  8949 ;;      Temps:          0       0       0       0       0
  8950 ;;      Totals:         0       0       0       0       0
  8951 ;;Total ram usage:        0 bytes
  8952 ;; Hardware stack levels used:    1
  8953 ;; Hardware stack levels required when called:    1
  8954 ;; This function calls:
  8955 ;;		Nothing
  8956 ;; This function is called by:
  8957 ;;		_ultrasonic
  8958 ;; This function uses a non-reentrant model
  8959 ;;
  8960                           psect	text1408,local,class=CODE,delta=2,merge=1
  8961                           global __ptext1408
  8962  1460                     __ptext1408:	;psect for function _timer1_init
  8963                           psect	text1408
  8964                           	file	"PR23.c"
  8965                           	line	566
  8966                           	global	__size_of_timer1_init
  8967  0007                     	__size_of_timer1_init	equ	__end_of_timer1_init-_timer1_init
  8968                           	
  8969  1460                     _timer1_init:	
  8970                           	opt	stack 5
  8971                           ; Regs used in _timer1_init: [wreg+status,2]
  8972                           	line	567
  8973                           	
  8974  1460                     l4162:	
  8975                           ;PR23.c: 567: TMR1H = 0;
  8976  1460  1283               	bcf	status, 5	;RP0=0, select bank0
  8977  1461  1303               	bcf	status, 6	;RP1=0, select bank0
  8978  1462  018F               	clrf	(15)	;volatile
  8979                           	line	568
  8980                           ;PR23.c: 568: TMR1L = 0;
  8981  1463  018E               	clrf	(14)	;volatile
  8982                           	line	569
  8983                           	
  8984  1464                     l4164:	
  8985                           ;PR23.c: 569: T1CON = 0b00100001;
  8986  1464  3021               	movlw	(021h)
  8987  1465  0090               	movwf	(16)	;volatile
  8988                           	line	570
  8989                           	
  8990  1466                     l355:	
  8991  1466  0008               	return
  8992                           	opt stack 0
  8993                           GLOBAL	__end_of_timer1_init
  8994  1467                     	__end_of_timer1_init:
  8995                           	signat	_timer1_init,88
  8996                           	global	_interrupt_init
  8997                           
  8998 ;; *************** function _interrupt_init *****************
  8999 ;; Defined at:
  9000 ;;		line 574 in file "PR23.c"
  9001 ;; Parameters:    Size  Location     Type
  9002 ;;		None
  9003 ;; Auto vars:     Size  Location     Type
  9004 ;;		None
  9005 ;; Return value:  Size  Location     Type
  9006 ;;		None               void
  9007 ;; Registers used:
  9008 ;;		None
  9009 ;; Tracked objects:
  9010 ;;		On entry : 0/0
  9011 ;;		On exit  : 0/0
  9012 ;;		Unchanged: 0/0
  9013 ;; Data sizes:     COMMON   BANK0   BANK1   BANK3   BANK2
  9014 ;;      Params:         0       0       0       0       0
  9015 ;;      Locals:         0       0       0       0       0
  9016 ;;      Temps:          0       0       0       0       0
  9017 ;;      Totals:         0       0       0       0       0
  9018 ;;Total ram usage:        0 bytes
  9019 ;; Hardware stack levels used:    1
  9020 ;; Hardware stack levels required when called:    1
  9021 ;; This function calls:
  9022 ;;		Nothing
  9023 ;; This function is called by:
  9024 ;;		_init
  9025 ;; This function uses a non-reentrant model
  9026 ;;
  9027                           psect	text1409,local,class=CODE,delta=2,merge=1
  9028                           global __ptext1409
  9029  1437                     __ptext1409:	;psect for function _interrupt_init
  9030                           psect	text1409
  9031                           	file	"PR23.c"
  9032                           	line	574
  9033                           	global	__size_of_interrupt_init
  9034  0006                     	__size_of_interrupt_init	equ	__end_of_interrupt_init-_interrupt_init
  9035                           	
  9036  1437                     _interrupt_init:	
  9037                           	opt	stack 5
  9038                           ; Regs used in _interrupt_init: []
  9039                           	line	575
  9040                           	
  9041  1437                     l4166:	
  9042                           ;PR23.c: 575: RCIE = 0;
  9043  1437  1683               	bsf	status, 5	;RP0=1, select bank1
  9044  1438  1303               	bcf	status, 6	;RP1=0, select bank1
  9045  1439  128C               	bcf	(1125/8)^080h,(1125)&7	;volatile
  9046                           	line	576
  9047                           ;PR23.c: 576: RBIE = 0;
  9048  143A  118B               	bcf	(91/8),(91)&7	;volatile
  9049                           	line	577
  9050                           ;PR23.c: 577: TMR1IE = 0;
  9051  143B  100C               	bcf	(1120/8)^080h,(1120)&7	;volatile
  9052                           	line	578
  9053                           	
  9054  143C                     l358:	
  9055  143C  0008               	return
  9056                           	opt stack 0
  9057                           GLOBAL	__end_of_interrupt_init
  9058  143D                     	__end_of_interrupt_init:
  9059                           	signat	_interrupt_init,88
  9060                           	global	_enable_global_int
  9061                           
  9062 ;; *************** function _enable_global_int *****************
  9063 ;; Defined at:
  9064 ;;		line 582 in file "PR23.c"
  9065 ;; Parameters:    Size  Location     Type
  9066 ;;		None
  9067 ;; Auto vars:     Size  Location     Type
  9068 ;;		None
  9069 ;; Return value:  Size  Location     Type
  9070 ;;		None               void
  9071 ;; Registers used:
  9072 ;;		None
  9073 ;; Tracked objects:
  9074 ;;		On entry : 0/0
  9075 ;;		On exit  : 0/0
  9076 ;;		Unchanged: 0/0
  9077 ;; Data sizes:     COMMON   BANK0   BANK1   BANK3   BANK2
  9078 ;;      Params:         0       0       0       0       0
  9079 ;;      Locals:         0       0       0       0       0
  9080 ;;      Temps:          0       0       0       0       0
  9081 ;;      Totals:         0       0       0       0       0
  9082 ;;Total ram usage:        0 bytes
  9083 ;; Hardware stack levels used:    1
  9084 ;; Hardware stack levels required when called:    1
  9085 ;; This function calls:
  9086 ;;		Nothing
  9087 ;; This function is called by:
  9088 ;;		_ultrasonic
  9089 ;; This function uses a non-reentrant model
  9090 ;;
  9091                           psect	text1410,local,class=CODE,delta=2,merge=1
  9092                           global __ptext1410
  9093  00FC                     __ptext1410:	;psect for function _enable_global_int
  9094                           psect	text1410
  9095                           	file	"PR23.c"
  9096                           	line	582
  9097                           	global	__size_of_enable_global_int
  9098  0003                     	__size_of_enable_global_int	equ	__end_of_enable_global_int-_enable_global_int
  9099                           	
  9100  00FC                     _enable_global_int:	
  9101                           	opt	stack 5
  9102                           ; Regs used in _enable_global_int: []
  9103                           	line	583
  9104                           	
  9105  00FC                     l4168:	
  9106                           ;PR23.c: 583: GIE = 1;
  9107  00FC  178B               	bsf	(95/8),(95)&7	;volatile
  9108                           	line	584
  9109                           ;PR23.c: 584: PEIE = 1;
  9110  00FD  170B               	bsf	(94/8),(94)&7	;volatile
  9111                           	line	585
  9112                           	
  9113  00FE                     l361:	
  9114  00FE  0008               	return
  9115                           	opt stack 0
  9116                           GLOBAL	__end_of_enable_global_int
  9117  00FF                     	__end_of_enable_global_int:
  9118                           	signat	_enable_global_int,88
  9119                           	global	_disable_global_int
  9120                           
  9121 ;; *************** function _disable_global_int *****************
  9122 ;; Defined at:
  9123 ;;		line 589 in file "PR23.c"
  9124 ;; Parameters:    Size  Location     Type
  9125 ;;		None
  9126 ;; Auto vars:     Size  Location     Type
  9127 ;;		None
  9128 ;; Return value:  Size  Location     Type
  9129 ;;		None               void
  9130 ;; Registers used:
  9131 ;;		None
  9132 ;; Tracked objects:
  9133 ;;		On entry : 0/0
  9134 ;;		On exit  : 0/0
  9135 ;;		Unchanged: 0/0
  9136 ;; Data sizes:     COMMON   BANK0   BANK1   BANK3   BANK2
  9137 ;;      Params:         0       0       0       0       0
  9138 ;;      Locals:         0       0       0       0       0
  9139 ;;      Temps:          0       0       0       0       0
  9140 ;;      Totals:         0       0       0       0       0
  9141 ;;Total ram usage:        0 bytes
  9142 ;; Hardware stack levels used:    1
  9143 ;; Hardware stack levels required when called:    1
  9144 ;; This function calls:
  9145 ;;		Nothing
  9146 ;; This function is called by:
  9147 ;;		_init
  9148 ;;		_ultrasonic
  9149 ;;		_wireless_xbee
  9150 ;;		_SKPS_PScon
  9151 ;; This function uses a non-reentrant model
  9152 ;;
  9153                           psect	text1411,local,class=CODE,delta=2,merge=1
  9154                           global __ptext1411
  9155  1434                     __ptext1411:	;psect for function _disable_global_int
  9156                           psect	text1411
  9157                           	file	"PR23.c"
  9158                           	line	589
  9159                           	global	__size_of_disable_global_int
  9160  0003                     	__size_of_disable_global_int	equ	__end_of_disable_global_int-_disable_global_int
  9161                           	
  9162  1434                     _disable_global_int:	
  9163                           	opt	stack 5
  9164                           ; Regs used in _disable_global_int: []
  9165                           	line	590
  9166                           	
  9167  1434                     l4170:	
  9168                           ;PR23.c: 590: GIE = 0;
  9169  1434  138B               	bcf	(95/8),(95)&7	;volatile
  9170                           	line	591
  9171                           ;PR23.c: 591: PEIE = 0;
  9172  1435  130B               	bcf	(94/8),(94)&7	;volatile
  9173                           	line	592
  9174                           	
  9175  1436                     l364:	
  9176  1436  0008               	return
  9177                           	opt stack 0
  9178                           GLOBAL	__end_of_disable_global_int
  9179  1437                     	__end_of_disable_global_int:
  9180                           	signat	_disable_global_int,88
  9181                           	global	_stop
  9182                           
  9183 ;; *************** function _stop *****************
  9184 ;; Defined at:
  9185 ;;		line 1233 in file "PR23.c"
  9186 ;; Parameters:    Size  Location     Type
  9187 ;;		None
  9188 ;; Auto vars:     Size  Location     Type
  9189 ;;		None
  9190 ;; Return value:  Size  Location     Type
  9191 ;;		None               void
  9192 ;; Registers used:
  9193 ;;		None
  9194 ;; Tracked objects:
  9195 ;;		On entry : 0/0
  9196 ;;		On exit  : 0/0
  9197 ;;		Unchanged: 0/0
  9198 ;; Data sizes:     COMMON   BANK0   BANK1   BANK3   BANK2
  9199 ;;      Params:         0       0       0       0       0
  9200 ;;      Locals:         0       0       0       0       0
  9201 ;;      Temps:          0       0       0       0       0
  9202 ;;      Totals:         0       0       0       0       0
  9203 ;;Total ram usage:        0 bytes
  9204 ;; Hardware stack levels used:    1
  9205 ;; Hardware stack levels required when called:    1
  9206 ;; This function calls:
  9207 ;;		Nothing
  9208 ;; This function is called by:
  9209 ;;		_init
  9210 ;;		_ultrasonic
  9211 ;;		_analog_sen
  9212 ;;		_wireless_xbee
  9213 ;;		_SKPS_PScon
  9214 ;; This function uses a non-reentrant model
  9215 ;;
  9216                           psect	text1412,local,class=CODE,delta=2,merge=1
  9217                           global __ptext1412
  9218  1459                     __ptext1412:	;psect for function _stop
  9219                           psect	text1412
  9220                           	file	"PR23.c"
  9221                           	line	1233
  9222                           	global	__size_of_stop
  9223  0007                     	__size_of_stop	equ	__end_of_stop-_stop
  9224                           	
  9225  1459                     _stop:	
  9226                           	opt	stack 5
  9227                           ; Regs used in _stop: []
  9228                           	line	1234
  9229                           	
  9230  1459                     l4172:	
  9231                           ;PR23.c: 1234: RC0 = 0;
  9232  1459  1283               	bcf	status, 5	;RP0=0, select bank0
  9233  145A  1303               	bcf	status, 6	;RP1=0, select bank0
  9234  145B  1007               	bcf	(56/8),(56)&7	;volatile
  9235                           	line	1235
  9236                           ;PR23.c: 1235: RC3 = 0;
  9237  145C  1187               	bcf	(59/8),(59)&7	;volatile
  9238                           	line	1236
  9239                           ;PR23.c: 1236: RC4 = 0;
  9240  145D  1207               	bcf	(60/8),(60)&7	;volatile
  9241                           	line	1237
  9242                           ;PR23.c: 1237: RC5 = 0;
  9243  145E  1287               	bcf	(61/8),(61)&7	;volatile
  9244                           	line	1238
  9245                           	
  9246  145F                     l527:	
  9247  145F  0008               	return
  9248                           	opt stack 0
  9249                           GLOBAL	__end_of_stop
  9250  1460                     	__end_of_stop:
  9251                           	signat	_stop,88
  9252                           	global	_forward
  9253                           
  9254 ;; *************** function _forward *****************
  9255 ;; Defined at:
  9256 ;;		line 1201 in file "PR23.c"
  9257 ;; Parameters:    Size  Location     Type
  9258 ;;		None
  9259 ;; Auto vars:     Size  Location     Type
  9260 ;;		None
  9261 ;; Return value:  Size  Location     Type
  9262 ;;		None               void
  9263 ;; Registers used:
  9264 ;;		None
  9265 ;; Tracked objects:
  9266 ;;		On entry : 0/0
  9267 ;;		On exit  : 0/0
  9268 ;;		Unchanged: 0/0
  9269 ;; Data sizes:     COMMON   BANK0   BANK1   BANK3   BANK2
  9270 ;;      Params:         0       0       0       0       0
  9271 ;;      Locals:         0       0       0       0       0
  9272 ;;      Temps:          0       0       0       0       0
  9273 ;;      Totals:         0       0       0       0       0
  9274 ;;Total ram usage:        0 bytes
  9275 ;; Hardware stack levels used:    1
  9276 ;; Hardware stack levels required when called:    1
  9277 ;; This function calls:
  9278 ;;		Nothing
  9279 ;; This function is called by:
  9280 ;;		_line_follow
  9281 ;;		_ultrasonic
  9282 ;;		_analog_sen
  9283 ;;		_wireless_xbee
  9284 ;;		_SKPS_PScon
  9285 ;; This function uses a non-reentrant model
  9286 ;;
  9287                           psect	text1413,local,class=CODE,delta=2,merge=1
  9288                           global __ptext1413
  9289  1452                     __ptext1413:	;psect for function _forward
  9290                           psect	text1413
  9291                           	file	"PR23.c"
  9292                           	line	1201
  9293                           	global	__size_of_forward
  9294  0007                     	__size_of_forward	equ	__end_of_forward-_forward
  9295                           	
  9296  1452                     _forward:	
  9297                           	opt	stack 5
  9298                           ; Regs used in _forward: []
  9299                           	line	1202
  9300                           	
  9301  1452                     l4174:	
  9302                           ;PR23.c: 1202: RC0 = 0;
  9303  1452  1283               	bcf	status, 5	;RP0=0, select bank0
  9304  1453  1303               	bcf	status, 6	;RP1=0, select bank0
  9305  1454  1007               	bcf	(56/8),(56)&7	;volatile
  9306                           	line	1203
  9307                           ;PR23.c: 1203: RC3 = 1;
  9308  1455  1587               	bsf	(59/8),(59)&7	;volatile
  9309                           	line	1204
  9310                           ;PR23.c: 1204: RC4 = 0;
  9311  1456  1207               	bcf	(60/8),(60)&7	;volatile
  9312                           	line	1205
  9313                           ;PR23.c: 1205: RC5 = 1;
  9314  1457  1687               	bsf	(61/8),(61)&7	;volatile
  9315                           	line	1206
  9316                           	
  9317  1458                     l515:	
  9318  1458  0008               	return
  9319                           	opt stack 0
  9320                           GLOBAL	__end_of_forward
  9321  1459                     	__end_of_forward:
  9322                           	signat	_forward,88
  9323                           	global	_us_value
  9324                           
  9325 ;; *************** function _us_value *****************
  9326 ;; Defined at:
  9327 ;;		line 1157 in file "PR23.c"
  9328 ;; Parameters:    Size  Location     Type
  9329 ;;  mode            1    wreg     unsigned char 
  9330 ;; Auto vars:     Size  Location     Type
  9331 ;;  mode            1   51[BANK0 ] unsigned char 
  9332 ;;  value           4   52[BANK0 ] unsigned long 
  9333 ;; Return value:  Size  Location     Type
  9334 ;;                  2   45[BANK0 ] unsigned int 
  9335 ;; Registers used:
  9336 ;;		wreg, fsr0l, fsr0h, status,2, status,0, pclath, cstack
  9337 ;; Tracked objects:
  9338 ;;		On entry : 0/0
  9339 ;;		On exit  : 0/0
  9340 ;;		Unchanged: 0/0
  9341 ;; Data sizes:     COMMON   BANK0   BANK1   BANK3   BANK2
  9342 ;;      Params:         0       2       0       0       0
  9343 ;;      Locals:         0       5       0       0       0
  9344 ;;      Temps:          0       4       0       0       0
  9345 ;;      Totals:         0      11       0       0       0
  9346 ;;Total ram usage:       11 bytes
  9347 ;; Hardware stack levels used:    1
  9348 ;; Hardware stack levels required when called:    3
  9349 ;; This function calls:
  9350 ;;		_read_adc
  9351 ;;		___lmul
  9352 ;;		___lldiv
  9353 ;;		___wmul
  9354 ;; This function is called by:
  9355 ;;		_ultrasonic
  9356 ;; This function uses a non-reentrant model
  9357 ;;
  9358                           psect	text1414,local,class=CODE,delta=2,merge=1
  9359                           global __ptext1414
  9360  0015                     __ptext1414:	;psect for function _us_value
  9361                           psect	text1414
  9362                           	file	"PR23.c"
  9363                           	line	1157
  9364                           	global	__size_of_us_value
  9365  00CD                     	__size_of_us_value	equ	__end_of_us_value-_us_value
  9366                           	
  9367  0015                     _us_value:	
  9368                           	opt	stack 3
  9369                           ; Regs used in _us_value: [wreg-fsr0h+status,2+status,0+pclath+cstack]
  9370                           ;us_value@mode stored from wreg
  9371  0015  1283               	bcf	status, 5	;RP0=0, select bank0
  9372  0016  1303               	bcf	status, 6	;RP1=0, select bank0
  9373  0017  00D3               	movwf	(us_value@mode)
  9374                           	line	1159
  9375                           	
  9376  0018                     l4176:	
  9377                           ;PR23.c: 1158: unsigned long value;
  9378                           ;PR23.c: 1159: switch (mode)
  9379  0018  28CF               	goto	l4192
  9380                           	line	1162
  9381                           ;PR23.c: 1160: {
  9382                           ;PR23.c: 1162: case 1:
  9383                           	
  9384  0019                     l506:	
  9385                           	line	1163
  9386                           	
  9387  0019                     l4178:	
  9388                           ;PR23.c: 1163: value = read_adc(0);
  9389  0019  3000               	movlw	(0)
  9390  001A  120A  158A  205A   	fcall	_read_adc
              120A  118A         
  9391  001F  1283               	bcf	status, 5	;RP0=0, select bank0
  9392  0020  1303               	bcf	status, 6	;RP1=0, select bank0
  9393  0021  083B               	movf	(0+(?_read_adc)),w
  9394  0022  00D4               	movwf	(us_value@value)
  9395  0023  083C               	movf	(1+(?_read_adc)),w
  9396  0024  00D5               	movwf	((us_value@value))+1
  9397  0025  01D6               	clrf	2+((us_value@value))
  9398  0026  01D7               	clrf	3+((us_value@value))
  9399                           	line	1169
  9400                           	
  9401  0027                     l4180:	
  9402                           ;PR23.c: 1169: value = value / 2;
  9403  0027  0854               	movf	(us_value@value),w
  9404  0028  00CF               	movwf	(??_us_value+0)+0
  9405  0029  0855               	movf	(us_value@value+1),w
  9406  002A  00D0               	movwf	((??_us_value+0)+0+1)
  9407  002B  0856               	movf	(us_value@value+2),w
  9408  002C  00D1               	movwf	((??_us_value+0)+0+2)
  9409  002D  0857               	movf	(us_value@value+3),w
  9410  002E  00D2               	movwf	((??_us_value+0)+0+3)
  9411  002F  3001               	movlw	01h
  9412  0030                     u4215:
  9413  0030  1003               	clrc
  9414  0031  0CD2               	rrf	(??_us_value+0)+3,f
  9415  0032  0CD1               	rrf	(??_us_value+0)+2,f
  9416  0033  0CD0               	rrf	(??_us_value+0)+1,f
  9417  0034  0CCF               	rrf	(??_us_value+0)+0,f
  9418  0035                     u4210:
  9419  0035  3EFF               	addlw	-1
  9420  0036  1D03               	skipz
  9421  0037  2830               	goto	u4215
  9422  0038  0852               	movf	3+(??_us_value+0)+0,w
  9423  0039  00D7               	movwf	(us_value@value+3)
  9424  003A  0851               	movf	2+(??_us_value+0)+0,w
  9425  003B  00D6               	movwf	(us_value@value+2)
  9426  003C  0850               	movf	1+(??_us_value+0)+0,w
  9427  003D  00D5               	movwf	(us_value@value+1)
  9428  003E  084F               	movf	0+(??_us_value+0)+0,w
  9429  003F  00D4               	movwf	(us_value@value)
  9430                           
  9431                           	line	1170
  9432                           ;PR23.c: 1170: break;
  9433  0040  28DA               	goto	l4194
  9434                           	line	1173
  9435                           ;PR23.c: 1173: case 2:
  9436                           	
  9437  0041                     l508:	
  9438                           	line	1175
  9439                           	
  9440  0041                     l4182:	
  9441                           ;PR23.c: 1175: value = pulse_width;
  9442  0041  0877               	movf	(_pulse_width),w
  9443  0042  00D4               	movwf	(us_value@value)
  9444  0043  0878               	movf	(_pulse_width+1),w
  9445  0044  00D5               	movwf	((us_value@value))+1
  9446  0045  01D6               	clrf	2+((us_value@value))
  9447  0046  01D7               	clrf	3+((us_value@value))
  9448                           	line	1178
  9449                           	
  9450  0047                     l4184:	
  9451                           ;PR23.c: 1178: value = (value * 5442) / 1000000;
  9452  0047  3000               	movlw	0
  9453  0048  00B0               	movwf	(?___lldiv+3)
  9454  0049  300F               	movlw	0Fh
  9455  004A  00AF               	movwf	(?___lldiv+2)
  9456  004B  3042               	movlw	042h
  9457  004C  00AE               	movwf	(?___lldiv+1)
  9458  004D  3040               	movlw	040h
  9459  004E  00AD               	movwf	(?___lldiv)
  9460                           
  9461  004F  0857               	movf	(us_value@value+3),w
  9462  0050  00A3               	movwf	(?___lmul+3)
  9463  0051  0856               	movf	(us_value@value+2),w
  9464  0052  00A2               	movwf	(?___lmul+2)
  9465  0053  0855               	movf	(us_value@value+1),w
  9466  0054  00A1               	movwf	(?___lmul+1)
  9467  0055  0854               	movf	(us_value@value),w
  9468  0056  00A0               	movwf	(?___lmul)
  9469                           
  9470  0057  3000               	movlw	0
  9471  0058  00A7               	movwf	3+(?___lmul)+04h
  9472  0059  3000               	movlw	0
  9473  005A  00A6               	movwf	2+(?___lmul)+04h
  9474  005B  3015               	movlw	015h
  9475  005C  00A5               	movwf	1+(?___lmul)+04h
  9476  005D  3042               	movlw	042h
  9477  005E  00A4               	movwf	0+(?___lmul)+04h
  9478                           
  9479  005F  160A  118A  274F   	fcall	___lmul
              120A  118A         
  9480  0064  1283               	bcf	status, 5	;RP0=0, select bank0
  9481  0065  1303               	bcf	status, 6	;RP1=0, select bank0
  9482  0066  0823               	movf	(3+(?___lmul)),w
  9483  0067  00B4               	movwf	3+(?___lldiv)+04h
  9484  0068  0822               	movf	(2+(?___lmul)),w
  9485  0069  00B3               	movwf	2+(?___lldiv)+04h
  9486  006A  0821               	movf	(1+(?___lmul)),w
  9487  006B  00B2               	movwf	1+(?___lldiv)+04h
  9488  006C  0820               	movf	(0+(?___lmul)),w
  9489  006D  00B1               	movwf	0+(?___lldiv)+04h
  9490                           
  9491  006E  120A  118A  278A   	fcall	___lldiv
              120A  118A         
  9492  0073  1283               	bcf	status, 5	;RP0=0, select bank0
  9493  0074  1303               	bcf	status, 6	;RP1=0, select bank0
  9494  0075  0830               	movf	(3+(?___lldiv)),w
  9495  0076  00D7               	movwf	(us_value@value+3)
  9496  0077  082F               	movf	(2+(?___lldiv)),w
  9497  0078  00D6               	movwf	(us_value@value+2)
  9498  0079  082E               	movf	(1+(?___lldiv)),w
  9499  007A  00D5               	movwf	(us_value@value+1)
  9500  007B  082D               	movf	(0+(?___lldiv)),w
  9501  007C  00D4               	movwf	(us_value@value)
  9502                           
  9503                           	line	1179
  9504                           ;PR23.c: 1179: break;
  9505  007D  28DA               	goto	l4194
  9506                           	line	1182
  9507                           ;PR23.c: 1182: case 3:
  9508                           	
  9509  007E                     l509:	
  9510                           	line	1184
  9511                           	
  9512  007E                     l4186:	
  9513                           ;PR23.c: 1184: if(data[0] == 'R')
  9514  007E  085F               	movf	(_data),w
  9515  007F  3A52               	xorlw	052h
  9516  0080  1D03               	skipz
  9517  0081  2883               	goto	u4221
  9518  0082  2884               	goto	u4220
  9519  0083                     u4221:
  9520  0083  28C5               	goto	l4190
  9521  0084                     u4220:
  9522                           	line	1186
  9523                           	
  9524  0084                     l4188:	
  9525                           ;PR23.c: 1185: {
  9526                           ;PR23.c: 1186: value = ((data[1] - 0x30)*100) + ((data[2] - 0x30)*10) + (data[3] - 0x30)
                                 ;
  9527  0084  0860               	movf	0+(_data)+01h,w
  9528  0085  3ED0               	addlw	low(-48)
  9529  0086  00A0               	movwf	(?___wmul)
  9530  0087  30FF               	movlw	high(-48)
  9531  0088  1803               	skipnc
  9532  0089  3000               	movlw	(high(-48)+1)&0ffh
  9533  008A  00A1               	movwf	((?___wmul))+1
  9534  008B  3064               	movlw	low(064h)
  9535  008C  00A2               	movwf	0+(?___wmul)+02h
  9536  008D  3000               	movlw	high(064h)
  9537  008E  00A3               	movwf	(0+(?___wmul)+02h)+1
  9538  008F  160A  118A  2593   	fcall	___wmul
              120A  118A         
  9539  0094  1283               	bcf	status, 5	;RP0=0, select bank0
  9540  0095  1303               	bcf	status, 6	;RP1=0, select bank0
  9541  0096  0862               	movf	0+(_data)+03h,w
  9542  0097  0720               	addwf	(0+(?___wmul)),w
  9543  0098  00CF               	movwf	(??_us_value+0)+0
  9544  0099  0821               	movf	(1+(?___wmul)),w
  9545  009A  1803               	skipnc
  9546  009B  0A21               	incf	(1+(?___wmul)),w
  9547  009C  00D0               	movwf	((??_us_value+0)+0)+1
  9548  009D  0861               	movf	0+(_data)+02h,w
  9549  009E  3ED0               	addlw	low(-48)
  9550  009F  00A0               	movwf	(?___wmul)
  9551  00A0  30FF               	movlw	high(-48)
  9552  00A1  1803               	skipnc
  9553  00A2  3000               	movlw	(high(-48)+1)&0ffh
  9554  00A3  00A1               	movwf	((?___wmul))+1
  9555  00A4  300A               	movlw	low(0Ah)
  9556  00A5  00A2               	movwf	0+(?___wmul)+02h
  9557  00A6  3000               	movlw	high(0Ah)
  9558  00A7  00A3               	movwf	(0+(?___wmul)+02h)+1
  9559  00A8  160A  118A  2593   	fcall	___wmul
              120A  118A         
  9560  00AD  1283               	bcf	status, 5	;RP0=0, select bank0
  9561  00AE  1303               	bcf	status, 6	;RP1=0, select bank0
  9562  00AF  0820               	movf	(0+(?___wmul)),w
  9563  00B0  074F               	addwf	0+(??_us_value+0)+0,w
  9564  00B1  00D1               	movwf	(??_us_value+2)+0
  9565  00B2  0821               	movf	(1+(?___wmul)),w
  9566  00B3  1803               	skipnc
  9567  00B4  0A21               	incf	(1+(?___wmul)),w
  9568  00B5  0750               	addwf	1+(??_us_value+0)+0,w
  9569  00B6  00D2               	movwf	1+(??_us_value+2)+0
  9570  00B7  0851               	movf	0+(??_us_value+2)+0,w
  9571  00B8  3ED0               	addlw	low(-48)
  9572  00B9  00D4               	movwf	(us_value@value)
  9573  00BA  0852               	movf	1+(??_us_value+2)+0,w
  9574  00BB  1803               	skipnc
  9575  00BC  3E01               	addlw	1
  9576  00BD  3EFF               	addlw	high(-48)
  9577  00BE  00D5               	movwf	1+(us_value@value)
  9578  00BF  01D6               	clrf	(us_value@value)+2
  9579  00C0  1BD5               	btfsc	(us_value@value)+1,7
  9580  00C1  03D6               	decf	2+(us_value@value),f
  9581  00C2  0856               	movf	(us_value@value)+2,w
  9582  00C3  00D7               	movwf	3+(us_value@value)
  9583                           	line	1187
  9584                           ;PR23.c: 1187: }
  9585  00C4  28DA               	goto	l4194
  9586                           	line	1188
  9587                           	
  9588  00C5                     l510:	
  9589                           	line	1190
  9590                           	
  9591  00C5                     l4190:	
  9592                           ;PR23.c: 1188: else
  9593                           ;PR23.c: 1189: {
  9594                           ;PR23.c: 1190: value = 0;
  9595  00C5  3000               	movlw	0
  9596  00C6  00D7               	movwf	(us_value@value+3)
  9597  00C7  3000               	movlw	0
  9598  00C8  00D6               	movwf	(us_value@value+2)
  9599  00C9  3000               	movlw	0
  9600  00CA  00D5               	movwf	(us_value@value+1)
  9601  00CB  3000               	movlw	0
  9602  00CC  00D4               	movwf	(us_value@value)
  9603                           
  9604  00CD  28DA               	goto	l4194
  9605                           	line	1191
  9606                           	
  9607  00CE                     l511:	
  9608                           	line	1192
  9609                           ;PR23.c: 1191: }
  9610                           ;PR23.c: 1192: }
  9611  00CE  28DA               	goto	l4194
  9612                           	line	1159
  9613                           	
  9614  00CF                     l505:	
  9615                           	
  9616  00CF                     l4192:	
  9617  00CF  0853               	movf	(us_value@mode),w
  9618                           	; Switch size 1, requested type "space"
  9619                           ; Number of cases is 3, Range of values is 1 to 3
  9620                           ; switch strategies available:
  9621                           ; Name         Instructions Cycles
  9622                           ; simple_byte           10     6 (average)
  9623                           ; direct_byte           20    11 (fixed)
  9624                           ; jumptable            263     9 (fixed)
  9625                           ;	Chosen strategy is simple_byte
  9626                           
  9627                           	opt asmopt_off
  9628  00D0  3A01               	xorlw	1^0	; case 1
  9629  00D1  1903               	skipnz
  9630  00D2  2819               	goto	l4178
  9631  00D3  3A03               	xorlw	2^1	; case 2
  9632  00D4  1903               	skipnz
  9633  00D5  2841               	goto	l4182
  9634  00D6  3A01               	xorlw	3^2	; case 3
  9635  00D7  1903               	skipnz
  9636  00D8  287E               	goto	l4186
  9637  00D9  28DA               	goto	l4194
  9638                           	opt asmopt_on
  9639                           
  9640                           	line	1192
  9641                           	
  9642  00DA                     l507:	
  9643                           	line	1193
  9644                           	
  9645  00DA                     l4194:	
  9646                           ;PR23.c: 1193: return (unsigned int)value;
  9647  00DA  0855               	movf	(us_value@value+1),w
  9648  00DB  01CE               	clrf	(?_us_value+1)
  9649  00DC  07CE               	addwf	(?_us_value+1)
  9650  00DD  0854               	movf	(us_value@value),w
  9651  00DE  01CD               	clrf	(?_us_value)
  9652  00DF  07CD               	addwf	(?_us_value)
  9653                           
  9654  00E0  28E1               	goto	l512
  9655                           	
  9656  00E1                     l4196:	
  9657                           	line	1194
  9658                           	
  9659  00E1                     l512:	
  9660  00E1  0008               	return
  9661                           	opt stack 0
  9662                           GLOBAL	__end_of_us_value
  9663  00E2                     	__end_of_us_value:
  9664                           	signat	_us_value,4218
  9665                           	global	_read_adc
  9666                           
  9667 ;; *************** function _read_adc *****************
  9668 ;; Defined at:
  9669 ;;		line 535 in file "PR23.c"
  9670 ;; Parameters:    Size  Location     Type
  9671 ;;  channel         1    wreg     unsigned char 
  9672 ;; Auto vars:     Size  Location     Type
  9673 ;;  channel         1   37[BANK0 ] unsigned char 
  9674 ;;  result          4   39[BANK0 ] unsigned long 
  9675 ;;  temp_result     2   43[BANK0 ] unsigned int 
  9676 ;;  i               1   38[BANK0 ] unsigned char 
  9677 ;; Return value:  Size  Location     Type
  9678 ;;                  2   27[BANK0 ] unsigned int 
  9679 ;; Registers used:
  9680 ;;		wreg, status,2, status,0, pclath, cstack
  9681 ;; Tracked objects:
  9682 ;;		On entry : 0/0
  9683 ;;		On exit  : 0/0
  9684 ;;		Unchanged: 0/0
  9685 ;; Data sizes:     COMMON   BANK0   BANK1   BANK3   BANK2
  9686 ;;      Params:         0       2       0       0       0
  9687 ;;      Locals:         0       8       0       0       0
  9688 ;;      Temps:          0       8       0       0       0
  9689 ;;      Totals:         0      18       0       0       0
  9690 ;;Total ram usage:       18 bytes
  9691 ;; Hardware stack levels used:    1
  9692 ;; Hardware stack levels required when called:    2
  9693 ;; This function calls:
  9694 ;;		_delay_ms
  9695 ;;		___lldiv
  9696 ;; This function is called by:
  9697 ;;		_analog_sen
  9698 ;;		_us_value
  9699 ;; This function uses a non-reentrant model
  9700 ;;
  9701                           psect	text1415,local,class=CODE,delta=2,merge=1
  9702                           global __ptext1415
  9703  085A                     __ptext1415:	;psect for function _read_adc
  9704                           psect	text1415
  9705                           	file	"PR23.c"
  9706                           	line	535
  9707                           	global	__size_of_read_adc
  9708  00AF                     	__size_of_read_adc	equ	__end_of_read_adc-_read_adc
  9709                           	
  9710  085A                     _read_adc:	
  9711                           	opt	stack 4
  9712                           ; Regs used in _read_adc: [wreg+status,2+status,0+pclath+cstack]
  9713                           ;read_adc@channel stored from wreg
  9714                           	line	537
  9715  085A  1283               	bcf	status, 5	;RP0=0, select bank0
  9716  085B  1303               	bcf	status, 6	;RP1=0, select bank0
  9717  085C  00C5               	movwf	(read_adc@channel)
  9718                           	
  9719  085D                     l3074:	
  9720                           ;PR23.c: 536: unsigned char i;
  9721                           ;PR23.c: 537: unsigned int temp_result = 0;
  9722  085D  01CB               	clrf	(read_adc@temp_result)
  9723  085E  01CC               	clrf	(read_adc@temp_result+1)
  9724                           	line	538
  9725                           	
  9726  085F                     l3076:	
  9727                           ;PR23.c: 538: unsigned long result = 0;
  9728  085F  3000               	movlw	0
  9729  0860  00CA               	movwf	(read_adc@result+3)
  9730  0861  3000               	movlw	0
  9731  0862  00C9               	movwf	(read_adc@result+2)
  9732  0863  3000               	movlw	0
  9733  0864  00C8               	movwf	(read_adc@result+1)
  9734  0865  3000               	movlw	0
  9735  0866  00C7               	movwf	(read_adc@result)
  9736                           
  9737                           	line	539
  9738                           	
  9739  0867                     l3078:	
  9740                           ;PR23.c: 539: if(channel == 0) ADCON0 = 0b10000001;
  9741  0867  08C5               	movf	(read_adc@channel),f
  9742  0868  1D03               	skipz
  9743  0869  286B               	goto	u2751
  9744  086A  286C               	goto	u2750
  9745  086B                     u2751:
  9746  086B  286F               	goto	l3082
  9747  086C                     u2750:
  9748                           	
  9749  086C                     l3080:	
  9750  086C  3081               	movlw	(081h)
  9751  086D  009F               	movwf	(31)	;volatile
  9752  086E  2879               	goto	l3086
  9753                           	line	540
  9754                           	
  9755  086F                     l344:	
  9756                           	
  9757  086F                     l3082:	
  9758                           ;PR23.c: 540: else if(channel == 1) ADCON0 = 0b10001001;
  9759  086F  0845               	movf	(read_adc@channel),w
  9760  0870  3A01               	xorlw	01h
  9761  0871  1D03               	skipz
  9762  0872  2874               	goto	u2761
  9763  0873  2875               	goto	u2760
  9764  0874                     u2761:
  9765  0874  2879               	goto	l3086
  9766  0875                     u2760:
  9767                           	
  9768  0875                     l3084:	
  9769  0875  3089               	movlw	(089h)
  9770  0876  009F               	movwf	(31)	;volatile
  9771  0877  2879               	goto	l3086
  9772                           	
  9773  0878                     l346:	
  9774  0878  2879               	goto	l3086
  9775                           	line	542
  9776                           	
  9777  0879                     l345:	
  9778                           	
  9779  0879                     l3086:	
  9780                           ;PR23.c: 542: delay_ms(1);
  9781  0879  3000               	movlw	0
  9782  087A  00A3               	movwf	(?_delay_ms+3)
  9783  087B  3000               	movlw	0
  9784  087C  00A2               	movwf	(?_delay_ms+2)
  9785  087D  3000               	movlw	0
  9786  087E  00A1               	movwf	(?_delay_ms+1)
  9787  087F  3001               	movlw	01h
  9788  0880  00A0               	movwf	(?_delay_ms)
  9789                           
  9790  0881  160A  118A  26CD   	fcall	_delay_ms
              120A  158A         
  9791                           	line	543
  9792                           	
  9793  0886                     l3088:	
  9794                           ;PR23.c: 543: for(i = 200; i > 0; i--)
  9795  0886  30C8               	movlw	(0C8h)
  9796  0887  1283               	bcf	status, 5	;RP0=0, select bank0
  9797  0888  1303               	bcf	status, 6	;RP1=0, select bank0
  9798  0889  00BD               	movwf	(??_read_adc+0)+0
  9799  088A  083D               	movf	(??_read_adc+0)+0,w
  9800  088B  00C6               	movwf	(read_adc@i)
  9801                           	
  9802  088C                     l3090:	
  9803  088C  08C6               	movf	(read_adc@i),f
  9804  088D  1D03               	skipz
  9805  088E  2890               	goto	u2771
  9806  088F  2891               	goto	u2770
  9807  0890                     u2771:
  9808  0890  2893               	goto	l347
  9809  0891                     u2770:
  9810  0891  28E1               	goto	l3098
  9811                           	
  9812  0892                     l3092:	
  9813  0892  28E1               	goto	l3098
  9814                           	line	544
  9815                           	
  9816  0893                     l347:	
  9817                           	line	549
  9818                           ;PR23.c: 544: {
  9819                           ;PR23.c: 549: GO_DONE = 1;
  9820  0893  151F               	bsf	(250/8),(250)&7	;volatile
  9821                           	line	550
  9822                           ;PR23.c: 550: while(GO_DONE==1);
  9823  0894  2895               	goto	l349
  9824                           	
  9825  0895                     l350:	
  9826                           	
  9827  0895                     l349:	
  9828  0895  191F               	btfsc	(250/8),(250)&7	;volatile
  9829  0896  2898               	goto	u2781
  9830  0897  2899               	goto	u2780
  9831  0898                     u2781:
  9832  0898  2895               	goto	l349
  9833  0899                     u2780:
  9834  0899  289A               	goto	l3094
  9835                           	
  9836  089A                     l351:	
  9837                           	line	552
  9838                           	
  9839  089A                     l3094:	
  9840                           ;PR23.c: 552: temp_result = ADRESH;
  9841  089A  081E               	movf	(30),w	;volatile
  9842  089B  00BD               	movwf	(??_read_adc+0)+0+0
  9843  089C  01BE               	clrf	(??_read_adc+0)+0+1
  9844  089D  083D               	movf	0+(??_read_adc+0)+0,w
  9845  089E  00CB               	movwf	(read_adc@temp_result)
  9846  089F  083E               	movf	1+(??_read_adc+0)+0,w
  9847  08A0  00CC               	movwf	(read_adc@temp_result+1)
  9848                           	line	553
  9849                           ;PR23.c: 553: temp_result = temp_result<<8;
  9850  08A1  084B               	movf	(read_adc@temp_result),w
  9851  08A2  00BE               	movwf	(??_read_adc+0)+0+1
  9852  08A3  01BD               	clrf	(??_read_adc+0)+0
  9853  08A4  083D               	movf	0+(??_read_adc+0)+0,w
  9854  08A5  00CB               	movwf	(read_adc@temp_result)
  9855  08A6  083E               	movf	1+(??_read_adc+0)+0,w
  9856  08A7  00CC               	movwf	(read_adc@temp_result+1)
  9857                           	line	554
  9858                           ;PR23.c: 554: temp_result = temp_result|ADRESL;
  9859  08A8  084B               	movf	(read_adc@temp_result),w
  9860  08A9  1683               	bsf	status, 5	;RP0=1, select bank1
  9861  08AA  1303               	bcf	status, 6	;RP1=0, select bank1
  9862  08AB  041E               	iorwf	(158)^080h,w	;volatile
  9863  08AC  1283               	bcf	status, 5	;RP0=0, select bank0
  9864  08AD  1303               	bcf	status, 6	;RP1=0, select bank0
  9865  08AE  00CB               	movwf	(read_adc@temp_result)
  9866  08AF  084C               	movf	(read_adc@temp_result+1),w
  9867  08B0  00CC               	movwf	1+(read_adc@temp_result)
  9868                           	line	556
  9869                           ;PR23.c: 556: result = result + temp_result;
  9870  08B1  0847               	movf	(read_adc@result),w
  9871  08B2  00BD               	movwf	(??_read_adc+0)+0
  9872  08B3  0848               	movf	(read_adc@result+1),w
  9873  08B4  00BE               	movwf	((??_read_adc+0)+0+1)
  9874  08B5  0849               	movf	(read_adc@result+2),w
  9875  08B6  00BF               	movwf	((??_read_adc+0)+0+2)
  9876  08B7  084A               	movf	(read_adc@result+3),w
  9877  08B8  00C0               	movwf	((??_read_adc+0)+0+3)
  9878  08B9  084B               	movf	(read_adc@temp_result),w
  9879  08BA  00C1               	movwf	((??_read_adc+4)+0)
  9880  08BB  084C               	movf	(read_adc@temp_result+1),w
  9881  08BC  00C2               	movwf	((??_read_adc+4)+0+1)
  9882  08BD  01C3               	clrf	((??_read_adc+4)+0+2)
  9883  08BE  01C4               	clrf	((??_read_adc+4)+0+3)
  9884  08BF  0841               	movf	0+(??_read_adc+4)+0,w
  9885  08C0  07BD               	addwf	(??_read_adc+0)+0,f
  9886  08C1  0842               	movf	1+(??_read_adc+4)+0,w
  9887  08C2  1803               	skipnc
  9888  08C3  0F42               	incfsz	1+(??_read_adc+4)+0,w
  9889  08C4  28C6               	goto	u2790
  9890  08C5  28C7               	goto	u2791
  9891  08C6                     u2790:
  9892  08C6  07BE               	addwf	(??_read_adc+0)+1,f
  9893  08C7                     u2791:
  9894  08C7  0843               	movf	2+(??_read_adc+4)+0,w
  9895  08C8  1803               	skipnc
  9896  08C9  0F43               	incfsz	2+(??_read_adc+4)+0,w
  9897  08CA  28CC               	goto	u2792
  9898  08CB  28CD               	goto	u2793
  9899  08CC                     u2792:
  9900  08CC  07BF               	addwf	(??_read_adc+0)+2,f
  9901  08CD                     u2793:
  9902  08CD  0844               	movf	3+(??_read_adc+4)+0,w
  9903  08CE  1803               	skipnc
  9904  08CF  0A44               	incf	3+(??_read_adc+4)+0,w
  9905  08D0  07C0               	addwf	(??_read_adc+0)+3,f
  9906  08D1  0840               	movf	3+(??_read_adc+0)+0,w
  9907  08D2  00CA               	movwf	(read_adc@result+3)
  9908  08D3  083F               	movf	2+(??_read_adc+0)+0,w
  9909  08D4  00C9               	movwf	(read_adc@result+2)
  9910  08D5  083E               	movf	1+(??_read_adc+0)+0,w
  9911  08D6  00C8               	movwf	(read_adc@result+1)
  9912  08D7  083D               	movf	0+(??_read_adc+0)+0,w
  9913  08D8  00C7               	movwf	(read_adc@result)
  9914                           
  9915                           	line	543
  9916                           	
  9917  08D9                     l3096:	
  9918  08D9  3001               	movlw	low(01h)
  9919  08DA  02C6               	subwf	(read_adc@i),f
  9920  08DB  08C6               	movf	(read_adc@i),f
  9921  08DC  1D03               	skipz
  9922  08DD  28DF               	goto	u2801
  9923  08DE  28E0               	goto	u2800
  9924  08DF                     u2801:
  9925  08DF  2893               	goto	l347
  9926  08E0                     u2800:
  9927  08E0  28E1               	goto	l3098
  9928                           	
  9929  08E1                     l348:	
  9930                           	line	558
  9931                           	
  9932  08E1                     l3098:	
  9933                           ;PR23.c: 557: }
  9934                           ;PR23.c: 558: result = result/200;
  9935  08E1  3000               	movlw	0
  9936  08E2  00B0               	movwf	(?___lldiv+3)
  9937  08E3  3000               	movlw	0
  9938  08E4  00AF               	movwf	(?___lldiv+2)
  9939  08E5  3000               	movlw	0
  9940  08E6  00AE               	movwf	(?___lldiv+1)
  9941  08E7  30C8               	movlw	0C8h
  9942  08E8  00AD               	movwf	(?___lldiv)
  9943                           
  9944  08E9  084A               	movf	(read_adc@result+3),w
  9945  08EA  00B4               	movwf	3+(?___lldiv)+04h
  9946  08EB  0849               	movf	(read_adc@result+2),w
  9947  08EC  00B3               	movwf	2+(?___lldiv)+04h
  9948  08ED  0848               	movf	(read_adc@result+1),w
  9949  08EE  00B2               	movwf	1+(?___lldiv)+04h
  9950  08EF  0847               	movf	(read_adc@result),w
  9951  08F0  00B1               	movwf	0+(?___lldiv)+04h
  9952                           
  9953  08F1  120A  118A  278A   	fcall	___lldiv
              120A  158A         
  9954  08F6  1283               	bcf	status, 5	;RP0=0, select bank0
  9955  08F7  1303               	bcf	status, 6	;RP1=0, select bank0
  9956  08F8  0830               	movf	(3+(?___lldiv)),w
  9957  08F9  00CA               	movwf	(read_adc@result+3)
  9958  08FA  082F               	movf	(2+(?___lldiv)),w
  9959  08FB  00C9               	movwf	(read_adc@result+2)
  9960  08FC  082E               	movf	(1+(?___lldiv)),w
  9961  08FD  00C8               	movwf	(read_adc@result+1)
  9962  08FE  082D               	movf	(0+(?___lldiv)),w
  9963  08FF  00C7               	movwf	(read_adc@result)
  9964                           
  9965                           	line	559
  9966                           	
  9967  0900                     l3100:	
  9968                           ;PR23.c: 559: ADON = 0;
  9969  0900  101F               	bcf	(248/8),(248)&7	;volatile
  9970                           	line	560
  9971                           	
  9972  0901                     l3102:	
  9973                           ;PR23.c: 560: return (unsigned int)result;
  9974  0901  0848               	movf	(read_adc@result+1),w
  9975  0902  01BC               	clrf	(?_read_adc+1)
  9976  0903  07BC               	addwf	(?_read_adc+1)
  9977  0904  0847               	movf	(read_adc@result),w
  9978  0905  01BB               	clrf	(?_read_adc)
  9979  0906  07BB               	addwf	(?_read_adc)
  9980                           
  9981  0907  2908               	goto	l352
  9982                           	
  9983  0908                     l3104:	
  9984                           	line	561
  9985                           	
  9986  0908                     l352:	
  9987  0908  0008               	return
  9988                           	opt stack 0
  9989                           GLOBAL	__end_of_read_adc
  9990  0909                     	__end_of_read_adc:
  9991                           	signat	_read_adc,4218
  9992                           	global	_delay_ms
  9993                           
  9994 ;; *************** function _delay_ms *****************
  9995 ;; Defined at:
  9996 ;;		line 313 in file "PR23.c"
  9997 ;; Parameters:    Size  Location     Type
  9998 ;;  data            4    0[BANK0 ] unsigned long 
  9999 ;; Auto vars:     Size  Location     Type
 10000 ;;		None
 10001 ;; Return value:  Size  Location     Type
 10002 ;;		None               void
 10003 ;; Registers used:
 10004 ;;		wreg
 10005 ;; Tracked objects:
 10006 ;;		On entry : 0/0
 10007 ;;		On exit  : 0/0
 10008 ;;		Unchanged: 0/0
 10009 ;; Data sizes:     COMMON   BANK0   BANK1   BANK3   BANK2
 10010 ;;      Params:         0       4       0       0       0
 10011 ;;      Locals:         0       0       0       0       0
 10012 ;;      Temps:          0       4       0       0       0
 10013 ;;      Totals:         0       8       0       0       0
 10014 ;;Total ram usage:        8 bytes
 10015 ;; Hardware stack levels used:    1
 10016 ;; Hardware stack levels required when called:    1
 10017 ;; This function calls:
 10018 ;;		Nothing
 10019 ;; This function is called by:
 10020 ;;		_main
 10021 ;;		_beep
 10022 ;;		_lcd_init
 10023 ;;		_lcd_config
 10024 ;;		_lcd_char
 10025 ;;		_e_pulse
 10026 ;;		_lcd_clr
 10027 ;;		_read_adc
 10028 ;;		_ultrasonic
 10029 ;;		_wireless_xbee
 10030 ;;		_SKPS_PScon
 10031 ;; This function uses a non-reentrant model
 10032 ;;
 10033                           psect	text1416,local,class=CODE,delta=2,merge=1
 10034                           global __ptext1416
 10035  16CD                     __ptext1416:	;psect for function _delay_ms
 10036                           psect	text1416
 10037                           	file	"PR23.c"
 10038                           	line	313
 10039                           	global	__size_of_delay_ms
 10040  003D                     	__size_of_delay_ms	equ	__end_of_delay_ms-_delay_ms
 10041                           	
 10042  16CD                     _delay_ms:	
 10043                           	opt	stack 4
 10044                           ; Regs used in _delay_ms: [wreg]
 10045                           	line	314
 10046                           	
 10047  16CD                     l2312:	
 10048                           ;PR23.c: 314: while(data -- > 0)
 10049  16CD  2ED8               	goto	l237
 10050                           	
 10051  16CE                     l238:	
 10052                           	line	315
 10053                           	
 10054  16CE                     l2314:	
 10055                           ;PR23.c: 315: _delay((unsigned long)((1)*(20000000/4000.0)));
 10056                           	opt asmopt_off
 10057  16CE  3007               movlw	7
 10058  16CF  1283               	bcf	status, 5	;RP0=0, select bank0
 10059  16D0  1303               	bcf	status, 6	;RP1=0, select bank0
 10060  16D1  00A5               movwf	((??_delay_ms+0)+0+1),f
 10061  16D2  307D               	movlw	125
 10062  16D3  00A4               movwf	((??_delay_ms+0)+0),f
 10063  16D4                     u4277:
 10064  16D4  0BA4               	decfsz	((??_delay_ms+0)+0),f
 10065  16D5  2ED4               	goto	u4277
 10066  16D6  0BA5               	decfsz	((??_delay_ms+0)+0+1),f
 10067  16D7  2ED4               	goto	u4277
 10068                           opt asmopt_on
 10069                           
 10070                           	
 10071  16D8                     l237:	
 10072                           	line	314
 10073  16D8  3001               	movlw	01h
 10074  16D9  1283               	bcf	status, 5	;RP0=0, select bank0
 10075  16DA  1303               	bcf	status, 6	;RP1=0, select bank0
 10076  16DB  00A4               	movwf	((??_delay_ms+0)+0)
 10077  16DC  3000               	movlw	0
 10078  16DD  00A5               	movwf	((??_delay_ms+0)+0+1)
 10079  16DE  3000               	movlw	0
 10080  16DF  00A6               	movwf	((??_delay_ms+0)+0+2)
 10081  16E0  3000               	movlw	0
 10082  16E1  00A7               	movwf	((??_delay_ms+0)+0+3)
 10083  16E2  0824               	movf	0+(??_delay_ms+0)+0,w
 10084  16E3  02A0               	subwf	(delay_ms@data),f
 10085  16E4  0825               	movf	1+(??_delay_ms+0)+0,w
 10086  16E5  1C03               	skipc
 10087  16E6  0F25               	incfsz	1+(??_delay_ms+0)+0,w
 10088  16E7  2EE9               	goto	u1725
 10089  16E8  2EEA               	goto	u1726
 10090  16E9                     u1725:
 10091  16E9  02A1               	subwf	(delay_ms@data+1),f
 10092  16EA                     u1726:
 10093  16EA  0826               	movf	2+(??_delay_ms+0)+0,w
 10094  16EB  1C03               	skipc
 10095  16EC  0F26               	incfsz	2+(??_delay_ms+0)+0,w
 10096  16ED  2EEF               	goto	u1727
 10097  16EE  2EF0               	goto	u1728
 10098  16EF                     u1727:
 10099  16EF  02A2               	subwf	(delay_ms@data+2),f
 10100  16F0                     u1728:
 10101  16F0  0827               	movf	3+(??_delay_ms+0)+0,w
 10102  16F1  1C03               	skipc
 10103  16F2  0F27               	incfsz	3+(??_delay_ms+0)+0,w
 10104  16F3  2EF5               	goto	u1729
 10105  16F4  2EF6               	goto	u1720
 10106  16F5                     u1729:
 10107  16F5  02A3               	subwf	(delay_ms@data+3),f
 10108  16F6                     u1720:
 10109                           
 10110  16F6  30FF               	movlw	0FFh
 10111  16F7  0623               	xorwf	((delay_ms@data+3)),w
 10112  16F8  1D03               	skipz
 10113  16F9  2F04               	goto	u1735
 10114  16FA  30FF               	movlw	0FFh
 10115  16FB  0622               	xorwf	((delay_ms@data+2)),w
 10116  16FC  1D03               	skipz
 10117  16FD  2F04               	goto	u1735
 10118  16FE  30FF               	movlw	0FFh
 10119  16FF  0621               	xorwf	((delay_ms@data+1)),w
 10120  1700  1D03               	skipz
 10121  1701  2F04               	goto	u1735
 10122  1702  30FF               	movlw	0FFh
 10123  1703  0620               	xorwf	((delay_ms@data)),w
 10124  1704                     u1735:
 10125  1704  1D03               	skipz
 10126  1705  2F07               	goto	u1731
 10127  1706  2F08               	goto	u1730
 10128  1707                     u1731:
 10129  1707  2ECE               	goto	l2314
 10130  1708                     u1730:
 10131  1708  2F09               	goto	l240
 10132                           	
 10133  1709                     l239:	
 10134                           	line	316
 10135                           	
 10136  1709                     l240:	
 10137  1709  0008               	return
 10138                           	opt stack 0
 10139                           GLOBAL	__end_of_delay_ms
 10140  170A                     	__end_of_delay_ms:
 10141                           	signat	_delay_ms,4216
 10142                           	global	_backward
 10143                           
 10144 ;; *************** function _backward *****************
 10145 ;; Defined at:
 10146 ;;		line 1209 in file "PR23.c"
 10147 ;; Parameters:    Size  Location     Type
 10148 ;;		None
 10149 ;; Auto vars:     Size  Location     Type
 10150 ;;		None
 10151 ;; Return value:  Size  Location     Type
 10152 ;;		None               void
 10153 ;; Registers used:
 10154 ;;		None
 10155 ;; Tracked objects:
 10156 ;;		On entry : 0/0
 10157 ;;		On exit  : 0/0
 10158 ;;		Unchanged: 0/0
 10159 ;; Data sizes:     COMMON   BANK0   BANK1   BANK3   BANK2
 10160 ;;      Params:         0       0       0       0       0
 10161 ;;      Locals:         0       0       0       0       0
 10162 ;;      Temps:          0       0       0       0       0
 10163 ;;      Totals:         0       0       0       0       0
 10164 ;;Total ram usage:        0 bytes
 10165 ;; Hardware stack levels used:    1
 10166 ;; Hardware stack levels required when called:    1
 10167 ;; This function calls:
 10168 ;;		Nothing
 10169 ;; This function is called by:
 10170 ;;		_ultrasonic
 10171 ;;		_analog_sen
 10172 ;;		_wireless_xbee
 10173 ;;		_SKPS_PScon
 10174 ;; This function uses a non-reentrant model
 10175 ;;
 10176                           psect	text1417,local,class=CODE,delta=2,merge=1
 10177                           global __ptext1417
 10178  144B                     __ptext1417:	;psect for function _backward
 10179                           psect	text1417
 10180                           	file	"PR23.c"
 10181                           	line	1209
 10182                           	global	__size_of_backward
 10183  0007                     	__size_of_backward	equ	__end_of_backward-_backward
 10184                           	
 10185  144B                     _backward:	
 10186                           	opt	stack 5
 10187                           ; Regs used in _backward: []
 10188                           	line	1210
 10189                           	
 10190  144B                     l4198:	
 10191                           ;PR23.c: 1210: RC0 = 1;
 10192  144B  1283               	bcf	status, 5	;RP0=0, select bank0
 10193  144C  1303               	bcf	status, 6	;RP1=0, select bank0
 10194  144D  1407               	bsf	(56/8),(56)&7	;volatile
 10195                           	line	1211
 10196                           ;PR23.c: 1211: RC3 = 0;
 10197  144E  1187               	bcf	(59/8),(59)&7	;volatile
 10198                           	line	1212
 10199                           ;PR23.c: 1212: RC4 = 1;
 10200  144F  1607               	bsf	(60/8),(60)&7	;volatile
 10201                           	line	1213
 10202                           ;PR23.c: 1213: RC5 = 0;
 10203  1450  1287               	bcf	(61/8),(61)&7	;volatile
 10204                           	line	1214
 10205                           	
 10206  1451                     l518:	
 10207  1451  0008               	return
 10208                           	opt stack 0
 10209                           GLOBAL	__end_of_backward
 10210  1452                     	__end_of_backward:
 10211                           	signat	_backward,88
 10212                           	global	_right
 10213                           
 10214 ;; *************** function _right *****************
 10215 ;; Defined at:
 10216 ;;		line 1225 in file "PR23.c"
 10217 ;; Parameters:    Size  Location     Type
 10218 ;;		None
 10219 ;; Auto vars:     Size  Location     Type
 10220 ;;		None
 10221 ;; Return value:  Size  Location     Type
 10222 ;;		None               void
 10223 ;; Registers used:
 10224 ;;		None
 10225 ;; Tracked objects:
 10226 ;;		On entry : 0/0
 10227 ;;		On exit  : 0/0
 10228 ;;		Unchanged: 0/0
 10229 ;; Data sizes:     COMMON   BANK0   BANK1   BANK3   BANK2
 10230 ;;      Params:         0       0       0       0       0
 10231 ;;      Locals:         0       0       0       0       0
 10232 ;;      Temps:          0       0       0       0       0
 10233 ;;      Totals:         0       0       0       0       0
 10234 ;;Total ram usage:        0 bytes
 10235 ;; Hardware stack levels used:    1
 10236 ;; Hardware stack levels required when called:    1
 10237 ;; This function calls:
 10238 ;;		Nothing
 10239 ;; This function is called by:
 10240 ;;		_wireless_xbee
 10241 ;;		_SKPS_PScon
 10242 ;; This function uses a non-reentrant model
 10243 ;;
 10244                           psect	text1418,local,class=CODE,delta=2,merge=1
 10245                           global __ptext1418
 10246  1444                     __ptext1418:	;psect for function _right
 10247                           psect	text1418
 10248                           	file	"PR23.c"
 10249                           	line	1225
 10250                           	global	__size_of_right
 10251  0007                     	__size_of_right	equ	__end_of_right-_right
 10252                           	
 10253  1444                     _right:	
 10254                           	opt	stack 5
 10255                           ; Regs used in _right: []
 10256                           	line	1226
 10257                           	
 10258  1444                     l4200:	
 10259                           ;PR23.c: 1226: RC0 = 1;
 10260  1444  1283               	bcf	status, 5	;RP0=0, select bank0
 10261  1445  1303               	bcf	status, 6	;RP1=0, select bank0
 10262  1446  1407               	bsf	(56/8),(56)&7	;volatile
 10263                           	line	1227
 10264                           ;PR23.c: 1227: RC3 = 0;
 10265  1447  1187               	bcf	(59/8),(59)&7	;volatile
 10266                           	line	1228
 10267                           ;PR23.c: 1228: RC4 = 0;
 10268  1448  1207               	bcf	(60/8),(60)&7	;volatile
 10269                           	line	1229
 10270                           ;PR23.c: 1229: RC5 = 1;
 10271  1449  1687               	bsf	(61/8),(61)&7	;volatile
 10272                           	line	1230
 10273                           	
 10274  144A                     l524:	
 10275  144A  0008               	return
 10276                           	opt stack 0
 10277                           GLOBAL	__end_of_right
 10278  144B                     	__end_of_right:
 10279                           	signat	_right,88
 10280                           	global	_left
 10281                           
 10282 ;; *************** function _left *****************
 10283 ;; Defined at:
 10284 ;;		line 1217 in file "PR23.c"
 10285 ;; Parameters:    Size  Location     Type
 10286 ;;		None
 10287 ;; Auto vars:     Size  Location     Type
 10288 ;;		None
 10289 ;; Return value:  Size  Location     Type
 10290 ;;		None               void
 10291 ;; Registers used:
 10292 ;;		None
 10293 ;; Tracked objects:
 10294 ;;		On entry : 0/0
 10295 ;;		On exit  : 0/0
 10296 ;;		Unchanged: 0/0
 10297 ;; Data sizes:     COMMON   BANK0   BANK1   BANK3   BANK2
 10298 ;;      Params:         0       0       0       0       0
 10299 ;;      Locals:         0       0       0       0       0
 10300 ;;      Temps:          0       0       0       0       0
 10301 ;;      Totals:         0       0       0       0       0
 10302 ;;Total ram usage:        0 bytes
 10303 ;; Hardware stack levels used:    1
 10304 ;; Hardware stack levels required when called:    1
 10305 ;; This function calls:
 10306 ;;		Nothing
 10307 ;; This function is called by:
 10308 ;;		_wireless_xbee
 10309 ;;		_SKPS_PScon
 10310 ;; This function uses a non-reentrant model
 10311 ;;
 10312                           psect	text1419,local,class=CODE,delta=2,merge=1
 10313                           global __ptext1419
 10314  143D                     __ptext1419:	;psect for function _left
 10315                           psect	text1419
 10316                           	file	"PR23.c"
 10317                           	line	1217
 10318                           	global	__size_of_left
 10319  0007                     	__size_of_left	equ	__end_of_left-_left
 10320                           	
 10321  143D                     _left:	
 10322                           	opt	stack 5
 10323                           ; Regs used in _left: []
 10324                           	line	1218
 10325                           	
 10326  143D                     l4202:	
 10327                           ;PR23.c: 1218: RC0 = 0;
 10328  143D  1283               	bcf	status, 5	;RP0=0, select bank0
 10329  143E  1303               	bcf	status, 6	;RP1=0, select bank0
 10330  143F  1007               	bcf	(56/8),(56)&7	;volatile
 10331                           	line	1219
 10332                           ;PR23.c: 1219: RC3 = 1;
 10333  1440  1587               	bsf	(59/8),(59)&7	;volatile
 10334                           	line	1220
 10335                           ;PR23.c: 1220: RC4 = 1;
 10336  1441  1607               	bsf	(60/8),(60)&7	;volatile
 10337                           	line	1221
 10338                           ;PR23.c: 1221: RC5 = 0;
 10339  1442  1287               	bcf	(61/8),(61)&7	;volatile
 10340                           	line	1222
 10341                           	
 10342  1443                     l521:	
 10343  1443  0008               	return
 10344                           	opt stack 0
 10345                           GLOBAL	__end_of_left
 10346  1444                     	__end_of_left:
 10347                           	signat	_left,88
 10348                           	global	___wmul
 10349                           
 10350 ;; *************** function ___wmul *****************
 10351 ;; Defined at:
 10352 ;;		line 3 in file "C:\Program Files (x86)\Microchip\xc8\v1.11\sources\wmul.c"
 10353 ;; Parameters:    Size  Location     Type
 10354 ;;  multiplier      2    0[BANK0 ] unsigned int 
 10355 ;;  multiplicand    2    2[BANK0 ] unsigned int 
 10356 ;; Auto vars:     Size  Location     Type
 10357 ;;  product         2    4[BANK0 ] unsigned int 
 10358 ;; Return value:  Size  Location     Type
 10359 ;;                  2    0[BANK0 ] unsigned int 
 10360 ;; Registers used:
 10361 ;;		wreg, status,2, status,0
 10362 ;; Tracked objects:
 10363 ;;		On entry : 0/0
 10364 ;;		On exit  : 0/0
 10365 ;;		Unchanged: 0/0
 10366 ;; Data sizes:     COMMON   BANK0   BANK1   BANK3   BANK2
 10367 ;;      Params:         0       4       0       0       0
 10368 ;;      Locals:         0       2       0       0       0
 10369 ;;      Temps:          0       0       0       0       0
 10370 ;;      Totals:         0       6       0       0       0
 10371 ;;Total ram usage:        6 bytes
 10372 ;; Hardware stack levels used:    1
 10373 ;; Hardware stack levels required when called:    1
 10374 ;; This function calls:
 10375 ;;		Nothing
 10376 ;; This function is called by:
 10377 ;;		_us_value
 10378 ;; This function uses a non-reentrant model
 10379 ;;
 10380                           psect	text1420,local,class=CODE,delta=2,merge=1
 10381                           global __ptext1420
 10382  1593                     __ptext1420:	;psect for function ___wmul
 10383                           psect	text1420
 10384                           	file	"C:\Program Files (x86)\Microchip\xc8\v1.11\sources\wmul.c"
 10385                           	line	3
 10386                           	global	__size_of___wmul
 10387  002C                     	__size_of___wmul	equ	__end_of___wmul-___wmul
 10388                           	
 10389  1593                     ___wmul:	
 10390                           	opt	stack 4
 10391                           ; Regs used in ___wmul: [wreg+status,2+status,0]
 10392                           	line	4
 10393                           	
 10394  1593                     l4204:	
 10395  1593  1283               	bcf	status, 5	;RP0=0, select bank0
 10396  1594  1303               	bcf	status, 6	;RP1=0, select bank0
 10397  1595  01A4               	clrf	(___wmul@product)
 10398  1596  01A5               	clrf	(___wmul@product+1)
 10399  1597  2D98               	goto	l4206
 10400                           	line	6
 10401                           	
 10402  1598                     l616:	
 10403                           	line	7
 10404                           	
 10405  1598                     l4206:	
 10406  1598  1C20               	btfss	(___wmul@multiplier),(0)&7
 10407  1599  2D9B               	goto	u4231
 10408  159A  2D9C               	goto	u4230
 10409  159B                     u4231:
 10410  159B  2DA2               	goto	l617
 10411  159C                     u4230:
 10412                           	line	8
 10413                           	
 10414  159C                     l4208:	
 10415  159C  0822               	movf	(___wmul@multiplicand),w
 10416  159D  07A4               	addwf	(___wmul@product),f
 10417  159E  1803               	skipnc
 10418  159F  0AA5               	incf	(___wmul@product+1),f
 10419  15A0  0823               	movf	(___wmul@multiplicand+1),w
 10420  15A1  07A5               	addwf	(___wmul@product+1),f
 10421                           	
 10422  15A2                     l617:	
 10423                           	line	9
 10424  15A2  3001               	movlw	01h
 10425                           	
 10426  15A3                     u4245:
 10427  15A3  1003               	clrc
 10428  15A4  0DA2               	rlf	(___wmul@multiplicand),f
 10429  15A5  0DA3               	rlf	(___wmul@multiplicand+1),f
 10430  15A6  3EFF               	addlw	-1
 10431  15A7  1D03               	skipz
 10432  15A8  2DA3               	goto	u4245
 10433                           	line	10
 10434                           	
 10435  15A9                     l4210:	
 10436  15A9  3001               	movlw	01h
 10437                           	
 10438  15AA                     u4255:
 10439  15AA  1003               	clrc
 10440  15AB  0CA1               	rrf	(___wmul@multiplier+1),f
 10441  15AC  0CA0               	rrf	(___wmul@multiplier),f
 10442  15AD  3EFF               	addlw	-1
 10443  15AE  1D03               	skipz
 10444  15AF  2DAA               	goto	u4255
 10445                           	line	11
 10446  15B0  0821               	movf	((___wmul@multiplier+1)),w
 10447  15B1  0420               	iorwf	((___wmul@multiplier)),w
 10448  15B2  1D03               	skipz
 10449  15B3  2DB5               	goto	u4261
 10450  15B4  2DB6               	goto	u4260
 10451  15B5                     u4261:
 10452  15B5  2D98               	goto	l4206
 10453  15B6                     u4260:
 10454  15B6  2DB7               	goto	l4212
 10455                           	
 10456  15B7                     l618:	
 10457                           	line	12
 10458                           	
 10459  15B7                     l4212:	
 10460  15B7  0825               	movf	(___wmul@product+1),w
 10461  15B8  01A1               	clrf	(?___wmul+1)
 10462  15B9  07A1               	addwf	(?___wmul+1)
 10463  15BA  0824               	movf	(___wmul@product),w
 10464  15BB  01A0               	clrf	(?___wmul)
 10465  15BC  07A0               	addwf	(?___wmul)
 10466                           
 10467  15BD  2DBE               	goto	l619
 10468                           	
 10469  15BE                     l4214:	
 10470                           	line	13
 10471                           	
 10472  15BE                     l619:	
 10473  15BE  0008               	return
 10474                           	opt stack 0
 10475                           GLOBAL	__end_of___wmul
 10476  15BF                     	__end_of___wmul:
 10477                           	signat	___wmul,8314
 10478                           	global	___lwdiv
 10479                           
 10480 ;; *************** function ___lwdiv *****************
 10481 ;; Defined at:
 10482 ;;		line 5 in file "C:\Program Files (x86)\Microchip\xc8\v1.11\sources\lwdiv.c"
 10483 ;; Parameters:    Size  Location     Type
 10484 ;;  divisor         2    0[BANK0 ] unsigned int 
 10485 ;;  dividend        2    2[BANK0 ] unsigned int 
 10486 ;; Auto vars:     Size  Location     Type
 10487 ;;  quotient        2    5[BANK0 ] unsigned int 
 10488 ;;  counter         1    7[BANK0 ] unsigned char 
 10489 ;; Return value:  Size  Location     Type
 10490 ;;                  2    0[BANK0 ] unsigned int 
 10491 ;; Registers used:
 10492 ;;		wreg, status,2, status,0
 10493 ;; Tracked objects:
 10494 ;;		On entry : 0/0
 10495 ;;		On exit  : 0/0
 10496 ;;		Unchanged: 0/0
 10497 ;; Data sizes:     COMMON   BANK0   BANK1   BANK3   BANK2
 10498 ;;      Params:         0       4       0       0       0
 10499 ;;      Locals:         0       3       0       0       0
 10500 ;;      Temps:          0       1       0       0       0
 10501 ;;      Totals:         0       8       0       0       0
 10502 ;;Total ram usage:        8 bytes
 10503 ;; Hardware stack levels used:    1
 10504 ;; Hardware stack levels required when called:    1
 10505 ;; This function calls:
 10506 ;;		Nothing
 10507 ;; This function is called by:
 10508 ;;		_lcd_dis_num
 10509 ;; This function uses a non-reentrant model
 10510 ;;
 10511                           psect	text1421,local,class=CODE,delta=2,merge=1
 10512                           global __ptext1421
 10513  080B                     __ptext1421:	;psect for function ___lwdiv
 10514                           psect	text1421
 10515                           	file	"C:\Program Files (x86)\Microchip\xc8\v1.11\sources\lwdiv.c"
 10516                           	line	5
 10517                           	global	__size_of___lwdiv
 10518  004F                     	__size_of___lwdiv	equ	__end_of___lwdiv-___lwdiv
 10519                           	
 10520  080B                     ___lwdiv:	
 10521                           	opt	stack 4
 10522                           ; Regs used in ___lwdiv: [wreg+status,2+status,0]
 10523                           	line	9
 10524                           	
 10525  080B                     l3160:	
 10526  080B  1283               	bcf	status, 5	;RP0=0, select bank0
 10527  080C  1303               	bcf	status, 6	;RP1=0, select bank0
 10528  080D  01A5               	clrf	(___lwdiv@quotient)
 10529  080E  01A6               	clrf	(___lwdiv@quotient+1)
 10530                           	line	10
 10531                           	
 10532  080F                     l3162:	
 10533  080F  0821               	movf	(___lwdiv@divisor+1),w
 10534  0810  0420               	iorwf	(___lwdiv@divisor),w
 10535  0811  1903               	skipnz
 10536  0812  2814               	goto	u2871
 10537  0813  2815               	goto	u2870
 10538  0814                     u2871:
 10539  0814  2852               	goto	l3182
 10540  0815                     u2870:
 10541                           	line	11
 10542                           	
 10543  0815                     l3164:	
 10544  0815  01A7               	clrf	(___lwdiv@counter)
 10545  0816  0AA7               	incf	(___lwdiv@counter),f
 10546                           	line	12
 10547  0817  2824               	goto	l3170
 10548                           	
 10549  0818                     l624:	
 10550                           	line	13
 10551                           	
 10552  0818                     l3166:	
 10553  0818  3001               	movlw	01h
 10554                           	
 10555  0819                     u2885:
 10556  0819  1003               	clrc
 10557  081A  0DA0               	rlf	(___lwdiv@divisor),f
 10558  081B  0DA1               	rlf	(___lwdiv@divisor+1),f
 10559  081C  3EFF               	addlw	-1
 10560  081D  1D03               	skipz
 10561  081E  2819               	goto	u2885
 10562                           	line	14
 10563                           	
 10564  081F                     l3168:	
 10565  081F  3001               	movlw	(01h)
 10566  0820  00A4               	movwf	(??___lwdiv+0)+0
 10567  0821  0824               	movf	(??___lwdiv+0)+0,w
 10568  0822  07A7               	addwf	(___lwdiv@counter),f
 10569  0823  2824               	goto	l3170
 10570                           	line	15
 10571                           	
 10572  0824                     l623:	
 10573                           	line	12
 10574                           	
 10575  0824                     l3170:	
 10576  0824  1FA1               	btfss	(___lwdiv@divisor+1),(15)&7
 10577  0825  2827               	goto	u2891
 10578  0826  2828               	goto	u2890
 10579  0827                     u2891:
 10580  0827  2818               	goto	l3166
 10581  0828                     u2890:
 10582  0828  282A               	goto	l3172
 10583                           	
 10584  0829                     l625:	
 10585  0829  282A               	goto	l3172
 10586                           	line	16
 10587                           	
 10588  082A                     l626:	
 10589                           	line	17
 10590                           	
 10591  082A                     l3172:	
 10592  082A  3001               	movlw	01h
 10593                           	
 10594  082B                     u2905:
 10595  082B  1003               	clrc
 10596  082C  0DA5               	rlf	(___lwdiv@quotient),f
 10597  082D  0DA6               	rlf	(___lwdiv@quotient+1),f
 10598  082E  3EFF               	addlw	-1
 10599  082F  1D03               	skipz
 10600  0830  282B               	goto	u2905
 10601                           	line	18
 10602  0831  0821               	movf	(___lwdiv@divisor+1),w
 10603  0832  0223               	subwf	(___lwdiv@dividend+1),w
 10604  0833  1D03               	skipz
 10605  0834  2837               	goto	u2915
 10606  0835  0820               	movf	(___lwdiv@divisor),w
 10607  0836  0222               	subwf	(___lwdiv@dividend),w
 10608  0837                     u2915:
 10609  0837  1C03               	skipc
 10610  0838  283A               	goto	u2911
 10611  0839  283B               	goto	u2910
 10612  083A                     u2911:
 10613  083A  2843               	goto	l3178
 10614  083B                     u2910:
 10615                           	line	19
 10616                           	
 10617  083B                     l3174:	
 10618  083B  0820               	movf	(___lwdiv@divisor),w
 10619  083C  02A2               	subwf	(___lwdiv@dividend),f
 10620  083D  0821               	movf	(___lwdiv@divisor+1),w
 10621  083E  1C03               	skipc
 10622  083F  03A3               	decf	(___lwdiv@dividend+1),f
 10623  0840  02A3               	subwf	(___lwdiv@dividend+1),f
 10624                           	line	20
 10625                           	
 10626  0841                     l3176:	
 10627  0841  1425               	bsf	(___lwdiv@quotient)+(0/8),(0)&7
 10628  0842  2843               	goto	l3178
 10629                           	line	21
 10630                           	
 10631  0843                     l627:	
 10632                           	line	22
 10633                           	
 10634  0843                     l3178:	
 10635  0843  3001               	movlw	01h
 10636                           	
 10637  0844                     u2925:
 10638  0844  1003               	clrc
 10639  0845  0CA1               	rrf	(___lwdiv@divisor+1),f
 10640  0846  0CA0               	rrf	(___lwdiv@divisor),f
 10641  0847  3EFF               	addlw	-1
 10642  0848  1D03               	skipz
 10643  0849  2844               	goto	u2925
 10644                           	line	23
 10645                           	
 10646  084A                     l3180:	
 10647  084A  3001               	movlw	low(01h)
 10648  084B  02A7               	subwf	(___lwdiv@counter),f
 10649  084C  1D03               	btfss	status,2
 10650  084D  284F               	goto	u2931
 10651  084E  2850               	goto	u2930
 10652  084F                     u2931:
 10653  084F  282A               	goto	l3172
 10654  0850                     u2930:
 10655  0850  2852               	goto	l3182
 10656                           	
 10657  0851                     l628:	
 10658  0851  2852               	goto	l3182
 10659                           	line	24
 10660                           	
 10661  0852                     l622:	
 10662                           	line	25
 10663                           	
 10664  0852                     l3182:	
 10665  0852  0826               	movf	(___lwdiv@quotient+1),w
 10666  0853  01A1               	clrf	(?___lwdiv+1)
 10667  0854  07A1               	addwf	(?___lwdiv+1)
 10668  0855  0825               	movf	(___lwdiv@quotient),w
 10669  0856  01A0               	clrf	(?___lwdiv)
 10670  0857  07A0               	addwf	(?___lwdiv)
 10671                           
 10672  0858  2859               	goto	l629
 10673                           	
 10674  0859                     l3184:	
 10675                           	line	26
 10676                           	
 10677  0859                     l629:	
 10678  0859  0008               	return
 10679                           	opt stack 0
 10680                           GLOBAL	__end_of___lwdiv
 10681  085A                     	__end_of___lwdiv:
 10682                           	signat	___lwdiv,8314
 10683                           	global	___lwmod
 10684                           
 10685 ;; *************** function ___lwmod *****************
 10686 ;; Defined at:
 10687 ;;		line 5 in file "C:\Program Files (x86)\Microchip\xc8\v1.11\sources\lwmod.c"
 10688 ;; Parameters:    Size  Location     Type
 10689 ;;  divisor         2    0[BANK0 ] unsigned int 
 10690 ;;  dividend        2    2[BANK0 ] unsigned int 
 10691 ;; Auto vars:     Size  Location     Type
 10692 ;;  counter         1    5[BANK0 ] unsigned char 
 10693 ;; Return value:  Size  Location     Type
 10694 ;;                  2    0[BANK0 ] unsigned int 
 10695 ;; Registers used:
 10696 ;;		wreg, status,2, status,0
 10697 ;; Tracked objects:
 10698 ;;		On entry : 0/0
 10699 ;;		On exit  : 0/0
 10700 ;;		Unchanged: 0/0
 10701 ;; Data sizes:     COMMON   BANK0   BANK1   BANK3   BANK2
 10702 ;;      Params:         0       4       0       0       0
 10703 ;;      Locals:         0       1       0       0       0
 10704 ;;      Temps:          0       1       0       0       0
 10705 ;;      Totals:         0       6       0       0       0
 10706 ;;Total ram usage:        6 bytes
 10707 ;; Hardware stack levels used:    1
 10708 ;; Hardware stack levels required when called:    1
 10709 ;; This function calls:
 10710 ;;		Nothing
 10711 ;; This function is called by:
 10712 ;;		_lcd_dis_num
 10713 ;; This function uses a non-reentrant model
 10714 ;;
 10715                           psect	text1422,local,class=CODE,delta=2,merge=1
 10716                           global __ptext1422
 10717  170A                     __ptext1422:	;psect for function ___lwmod
 10718                           psect	text1422
 10719                           	file	"C:\Program Files (x86)\Microchip\xc8\v1.11\sources\lwmod.c"
 10720                           	line	5
 10721                           	global	__size_of___lwmod
 10722  0045                     	__size_of___lwmod	equ	__end_of___lwmod-___lwmod
 10723                           	
 10724  170A                     ___lwmod:	
 10725                           	opt	stack 4
 10726                           ; Regs used in ___lwmod: [wreg+status,2+status,0]
 10727                           	line	8
 10728                           	
 10729  170A                     l3186:	
 10730  170A  1283               	bcf	status, 5	;RP0=0, select bank0
 10731  170B  1303               	bcf	status, 6	;RP1=0, select bank0
 10732  170C  0821               	movf	(___lwmod@divisor+1),w
 10733  170D  0420               	iorwf	(___lwmod@divisor),w
 10734  170E  1903               	skipnz
 10735  170F  2F11               	goto	u2941
 10736  1710  2F12               	goto	u2940
 10737  1711                     u2941:
 10738  1711  2F47               	goto	l3204
 10739  1712                     u2940:
 10740                           	line	9
 10741                           	
 10742  1712                     l3188:	
 10743  1712  01A5               	clrf	(___lwmod@counter)
 10744  1713  0AA5               	incf	(___lwmod@counter),f
 10745                           	line	10
 10746  1714  2F21               	goto	l3194
 10747                           	
 10748  1715                     l634:	
 10749                           	line	11
 10750                           	
 10751  1715                     l3190:	
 10752  1715  3001               	movlw	01h
 10753                           	
 10754  1716                     u2955:
 10755  1716  1003               	clrc
 10756  1717  0DA0               	rlf	(___lwmod@divisor),f
 10757  1718  0DA1               	rlf	(___lwmod@divisor+1),f
 10758  1719  3EFF               	addlw	-1
 10759  171A  1D03               	skipz
 10760  171B  2F16               	goto	u2955
 10761                           	line	12
 10762                           	
 10763  171C                     l3192:	
 10764  171C  3001               	movlw	(01h)
 10765  171D  00A4               	movwf	(??___lwmod+0)+0
 10766  171E  0824               	movf	(??___lwmod+0)+0,w
 10767  171F  07A5               	addwf	(___lwmod@counter),f
 10768  1720  2F21               	goto	l3194
 10769                           	line	13
 10770                           	
 10771  1721                     l633:	
 10772                           	line	10
 10773                           	
 10774  1721                     l3194:	
 10775  1721  1FA1               	btfss	(___lwmod@divisor+1),(15)&7
 10776  1722  2F24               	goto	u2961
 10777  1723  2F25               	goto	u2960
 10778  1724                     u2961:
 10779  1724  2F15               	goto	l3190
 10780  1725                     u2960:
 10781  1725  2F27               	goto	l3196
 10782                           	
 10783  1726                     l635:	
 10784  1726  2F27               	goto	l3196
 10785                           	line	14
 10786                           	
 10787  1727                     l636:	
 10788                           	line	15
 10789                           	
 10790  1727                     l3196:	
 10791  1727  0821               	movf	(___lwmod@divisor+1),w
 10792  1728  0223               	subwf	(___lwmod@dividend+1),w
 10793  1729  1D03               	skipz
 10794  172A  2F2D               	goto	u2975
 10795  172B  0820               	movf	(___lwmod@divisor),w
 10796  172C  0222               	subwf	(___lwmod@dividend),w
 10797  172D                     u2975:
 10798  172D  1C03               	skipc
 10799  172E  2F30               	goto	u2971
 10800  172F  2F31               	goto	u2970
 10801  1730                     u2971:
 10802  1730  2F38               	goto	l3200
 10803  1731                     u2970:
 10804                           	line	16
 10805                           	
 10806  1731                     l3198:	
 10807  1731  0820               	movf	(___lwmod@divisor),w
 10808  1732  02A2               	subwf	(___lwmod@dividend),f
 10809  1733  0821               	movf	(___lwmod@divisor+1),w
 10810  1734  1C03               	skipc
 10811  1735  03A3               	decf	(___lwmod@dividend+1),f
 10812  1736  02A3               	subwf	(___lwmod@dividend+1),f
 10813  1737  2F38               	goto	l3200
 10814                           	
 10815  1738                     l637:	
 10816                           	line	17
 10817                           	
 10818  1738                     l3200:	
 10819  1738  3001               	movlw	01h
 10820                           	
 10821  1739                     u2985:
 10822  1739  1003               	clrc
 10823  173A  0CA1               	rrf	(___lwmod@divisor+1),f
 10824  173B  0CA0               	rrf	(___lwmod@divisor),f
 10825  173C  3EFF               	addlw	-1
 10826  173D  1D03               	skipz
 10827  173E  2F39               	goto	u2985
 10828                           	line	18
 10829                           	
 10830  173F                     l3202:	
 10831  173F  3001               	movlw	low(01h)
 10832  1740  02A5               	subwf	(___lwmod@counter),f
 10833  1741  1D03               	btfss	status,2
 10834  1742  2F44               	goto	u2991
 10835  1743  2F45               	goto	u2990
 10836  1744                     u2991:
 10837  1744  2F27               	goto	l3196
 10838  1745                     u2990:
 10839  1745  2F47               	goto	l3204
 10840                           	
 10841  1746                     l638:	
 10842  1746  2F47               	goto	l3204
 10843                           	line	19
 10844                           	
 10845  1747                     l632:	
 10846                           	line	20
 10847                           	
 10848  1747                     l3204:	
 10849  1747  0823               	movf	(___lwmod@dividend+1),w
 10850  1748  01A1               	clrf	(?___lwmod+1)
 10851  1749  07A1               	addwf	(?___lwmod+1)
 10852  174A  0822               	movf	(___lwmod@dividend),w
 10853  174B  01A0               	clrf	(?___lwmod)
 10854  174C  07A0               	addwf	(?___lwmod)
 10855                           
 10856  174D  2F4E               	goto	l639
 10857                           	
 10858  174E                     l3206:	
 10859                           	line	21
 10860                           	
 10861  174E                     l639:	
 10862  174E  0008               	return
 10863                           	opt stack 0
 10864                           GLOBAL	__end_of___lwmod
 10865  174F                     	__end_of___lwmod:
 10866                           	signat	___lwmod,8314
 10867                           	global	___lmul
 10868                           
 10869 ;; *************** function ___lmul *****************
 10870 ;; Defined at:
 10871 ;;		line 3 in file "C:\Program Files (x86)\Microchip\xc8\v1.11\sources\lmul.c"
 10872 ;; Parameters:    Size  Location     Type
 10873 ;;  multiplier      4    0[BANK0 ] unsigned long 
 10874 ;;  multiplicand    4    4[BANK0 ] unsigned long 
 10875 ;; Auto vars:     Size  Location     Type
 10876 ;;  product         4    9[BANK0 ] unsigned long 
 10877 ;; Return value:  Size  Location     Type
 10878 ;;                  4    0[BANK0 ] unsigned long 
 10879 ;; Registers used:
 10880 ;;		wreg, status,2, status,0
 10881 ;; Tracked objects:
 10882 ;;		On entry : 0/0
 10883 ;;		On exit  : 0/0
 10884 ;;		Unchanged: 0/0
 10885 ;; Data sizes:     COMMON   BANK0   BANK1   BANK3   BANK2
 10886 ;;      Params:         0       8       0       0       0
 10887 ;;      Locals:         0       4       0       0       0
 10888 ;;      Temps:          0       1       0       0       0
 10889 ;;      Totals:         0      13       0       0       0
 10890 ;;Total ram usage:       13 bytes
 10891 ;; Hardware stack levels used:    1
 10892 ;; Hardware stack levels required when called:    1
 10893 ;; This function calls:
 10894 ;;		Nothing
 10895 ;; This function is called by:
 10896 ;;		_analog_sen
 10897 ;;		_us_value
 10898 ;; This function uses a non-reentrant model
 10899 ;;
 10900                           psect	text1423,local,class=CODE,delta=2,merge=1
 10901                           global __ptext1423
 10902  174F                     __ptext1423:	;psect for function ___lmul
 10903                           psect	text1423
 10904                           	file	"C:\Program Files (x86)\Microchip\xc8\v1.11\sources\lmul.c"
 10905                           	line	3
 10906                           	global	__size_of___lmul
 10907  004C                     	__size_of___lmul	equ	__end_of___lmul-___lmul
 10908                           	
 10909  174F                     ___lmul:	
 10910                           	opt	stack 5
 10911                           ; Regs used in ___lmul: [wreg+status,2+status,0]
 10912                           	line	4
 10913                           	
 10914  174F                     l3208:	
 10915  174F  3000               	movlw	0
 10916  1750  1283               	bcf	status, 5	;RP0=0, select bank0
 10917  1751  1303               	bcf	status, 6	;RP1=0, select bank0
 10918  1752  00AC               	movwf	(___lmul@product+3)
 10919  1753  3000               	movlw	0
 10920  1754  00AB               	movwf	(___lmul@product+2)
 10921  1755  3000               	movlw	0
 10922  1756  00AA               	movwf	(___lmul@product+1)
 10923  1757  3000               	movlw	0
 10924  1758  00A9               	movwf	(___lmul@product)
 10925                           
 10926  1759  2F5A               	goto	l3210
 10927                           	line	6
 10928                           	
 10929  175A                     l691:	
 10930                           	line	7
 10931                           	
 10932  175A                     l3210:	
 10933  175A  1C20               	btfss	(___lmul@multiplier),(0)&7
 10934  175B  2F5D               	goto	u3001
 10935  175C  2F5E               	goto	u3000
 10936  175D                     u3001:
 10937  175D  2F76               	goto	l3214
 10938  175E                     u3000:
 10939                           	line	8
 10940                           	
 10941  175E                     l3212:	
 10942  175E  0824               	movf	(___lmul@multiplicand),w
 10943  175F  07A9               	addwf	(___lmul@product),f
 10944  1760  0825               	movf	(___lmul@multiplicand+1),w
 10945  1761  1103               	clrz
 10946  1762  1803               	skipnc
 10947  1763  3E01               	addlw	1
 10948  1764  1903               	skipnz
 10949  1765  2F67               	goto	u3011
 10950  1766  07AA               	addwf	(___lmul@product+1),f
 10951  1767                     u3011:
 10952  1767  0826               	movf	(___lmul@multiplicand+2),w
 10953  1768  1103               	clrz
 10954  1769  1803               	skipnc
 10955  176A  3E01               	addlw	1
 10956  176B  1903               	skipnz
 10957  176C  2F6E               	goto	u3012
 10958  176D  07AB               	addwf	(___lmul@product+2),f
 10959  176E                     u3012:
 10960  176E  0827               	movf	(___lmul@multiplicand+3),w
 10961  176F  1103               	clrz
 10962  1770  1803               	skipnc
 10963  1771  3E01               	addlw	1
 10964  1772  1903               	skipnz
 10965  1773  2F75               	goto	u3013
 10966  1774  07AC               	addwf	(___lmul@product+3),f
 10967  1775                     u3013:
 10968                           
 10969  1775  2F76               	goto	l3214
 10970                           	
 10971  1776                     l692:	
 10972                           	line	9
 10973                           	
 10974  1776                     l3214:	
 10975  1776  3001               	movlw	01h
 10976  1777  00A8               	movwf	(??___lmul+0)+0
 10977  1778                     u3025:
 10978  1778  1003               	clrc
 10979  1779  0DA4               	rlf	(___lmul@multiplicand),f
 10980  177A  0DA5               	rlf	(___lmul@multiplicand+1),f
 10981  177B  0DA6               	rlf	(___lmul@multiplicand+2),f
 10982  177C  0DA7               	rlf	(___lmul@multiplicand+3),f
 10983  177D  0BA8               	decfsz	(??___lmul+0)+0
 10984  177E  2F78               	goto	u3025
 10985                           	line	10
 10986                           	
 10987  177F                     l3216:	
 10988  177F  3001               	movlw	01h
 10989  1780                     u3035:
 10990  1780  1003               	clrc
 10991  1781  0CA3               	rrf	(___lmul@multiplier+3),f
 10992  1782  0CA2               	rrf	(___lmul@multiplier+2),f
 10993  1783  0CA1               	rrf	(___lmul@multiplier+1),f
 10994  1784  0CA0               	rrf	(___lmul@multiplier),f
 10995  1785  3EFF               	addlw	-1
 10996  1786  1D03               	skipz
 10997  1787  2F80               	goto	u3035
 10998                           
 10999                           	line	11
 11000  1788  0823               	movf	(___lmul@multiplier+3),w
 11001  1789  0422               	iorwf	(___lmul@multiplier+2),w
 11002  178A  0421               	iorwf	(___lmul@multiplier+1),w
 11003  178B  0420               	iorwf	(___lmul@multiplier),w
 11004  178C  1D03               	skipz
 11005  178D  2F8F               	goto	u3041
 11006  178E  2F90               	goto	u3040
 11007  178F                     u3041:
 11008  178F  2F5A               	goto	l3210
 11009  1790                     u3040:
 11010  1790  2F91               	goto	l3218
 11011                           	
 11012  1791                     l693:	
 11013                           	line	12
 11014                           	
 11015  1791                     l3218:	
 11016  1791  082C               	movf	(___lmul@product+3),w
 11017  1792  00A3               	movwf	(?___lmul+3)
 11018  1793  082B               	movf	(___lmul@product+2),w
 11019  1794  00A2               	movwf	(?___lmul+2)
 11020  1795  082A               	movf	(___lmul@product+1),w
 11021  1796  00A1               	movwf	(?___lmul+1)
 11022  1797  0829               	movf	(___lmul@product),w
 11023  1798  00A0               	movwf	(?___lmul)
 11024                           
 11025  1799  2F9A               	goto	l694
 11026                           	
 11027  179A                     l3220:	
 11028                           	line	13
 11029                           	
 11030  179A                     l694:	
 11031  179A  0008               	return
 11032                           	opt stack 0
 11033                           GLOBAL	__end_of___lmul
 11034  179B                     	__end_of___lmul:
 11035                           	signat	___lmul,8316
 11036                           	global	___lldiv
 11037                           
 11038 ;; *************** function ___lldiv *****************
 11039 ;; Defined at:
 11040 ;;		line 5 in file "C:\Program Files (x86)\Microchip\xc8\v1.11\sources\lldiv.c"
 11041 ;; Parameters:    Size  Location     Type
 11042 ;;  divisor         4   13[BANK0 ] unsigned long 
 11043 ;;  dividend        4   17[BANK0 ] unsigned long 
 11044 ;; Auto vars:     Size  Location     Type
 11045 ;;  quotient        4   22[BANK0 ] unsigned long 
 11046 ;;  counter         1   26[BANK0 ] unsigned char 
 11047 ;; Return value:  Size  Location     Type
 11048 ;;                  4   13[BANK0 ] unsigned long 
 11049 ;; Registers used:
 11050 ;;		wreg, status,2, status,0
 11051 ;; Tracked objects:
 11052 ;;		On entry : 0/0
 11053 ;;		On exit  : 0/0
 11054 ;;		Unchanged: 0/0
 11055 ;; Data sizes:     COMMON   BANK0   BANK1   BANK3   BANK2
 11056 ;;      Params:         0       8       0       0       0
 11057 ;;      Locals:         0       5       0       0       0
 11058 ;;      Temps:          0       1       0       0       0
 11059 ;;      Totals:         0      14       0       0       0
 11060 ;;Total ram usage:       14 bytes
 11061 ;; Hardware stack levels used:    1
 11062 ;; Hardware stack levels required when called:    1
 11063 ;; This function calls:
 11064 ;;		Nothing
 11065 ;; This function is called by:
 11066 ;;		_read_adc
 11067 ;;		_analog_sen
 11068 ;;		_us_value
 11069 ;; This function uses a non-reentrant model
 11070 ;;
 11071                           psect	text1424,local,class=CODE,delta=2,merge=1
 11072                           global __ptext1424
 11073  078A                     __ptext1424:	;psect for function ___lldiv
 11074                           psect	text1424
 11075                           	file	"C:\Program Files (x86)\Microchip\xc8\v1.11\sources\lldiv.c"
 11076                           	line	5
 11077                           	global	__size_of___lldiv
 11078  006F                     	__size_of___lldiv	equ	__end_of___lldiv-___lldiv
 11079                           	
 11080  078A                     ___lldiv:	
 11081                           	opt	stack 5
 11082                           ; Regs used in ___lldiv: [wreg+status,2+status,0]
 11083                           	line	9
 11084                           	
 11085  078A                     l3222:	
 11086  078A  3000               	movlw	0
 11087  078B  1283               	bcf	status, 5	;RP0=0, select bank0
 11088  078C  1303               	bcf	status, 6	;RP1=0, select bank0
 11089  078D  00B9               	movwf	(___lldiv@quotient+3)
 11090  078E  3000               	movlw	0
 11091  078F  00B8               	movwf	(___lldiv@quotient+2)
 11092  0790  3000               	movlw	0
 11093  0791  00B7               	movwf	(___lldiv@quotient+1)
 11094  0792  3000               	movlw	0
 11095  0793  00B6               	movwf	(___lldiv@quotient)
 11096                           
 11097                           	line	10
 11098  0794  0830               	movf	(___lldiv@divisor+3),w
 11099  0795  042F               	iorwf	(___lldiv@divisor+2),w
 11100  0796  042E               	iorwf	(___lldiv@divisor+1),w
 11101  0797  042D               	iorwf	(___lldiv@divisor),w
 11102  0798  1903               	skipnz
 11103  0799  2F9B               	goto	u3051
 11104  079A  2F9C               	goto	u3050
 11105  079B                     u3051:
 11106  079B  2FEF               	goto	l3242
 11107  079C                     u3050:
 11108                           	line	11
 11109                           	
 11110  079C                     l3224:	
 11111  079C  01BA               	clrf	(___lldiv@counter)
 11112  079D  0ABA               	incf	(___lldiv@counter),f
 11113                           	line	12
 11114  079E  2FAD               	goto	l3228
 11115                           	
 11116  079F                     l790:	
 11117                           	line	13
 11118                           	
 11119  079F                     l3226:	
 11120  079F  3001               	movlw	01h
 11121  07A0  00B5               	movwf	(??___lldiv+0)+0
 11122  07A1                     u3065:
 11123  07A1  1003               	clrc
 11124  07A2  0DAD               	rlf	(___lldiv@divisor),f
 11125  07A3  0DAE               	rlf	(___lldiv@divisor+1),f
 11126  07A4  0DAF               	rlf	(___lldiv@divisor+2),f
 11127  07A5  0DB0               	rlf	(___lldiv@divisor+3),f
 11128  07A6  0BB5               	decfsz	(??___lldiv+0)+0
 11129  07A7  2FA1               	goto	u3065
 11130                           	line	14
 11131  07A8  3001               	movlw	(01h)
 11132  07A9  00B5               	movwf	(??___lldiv+0)+0
 11133  07AA  0835               	movf	(??___lldiv+0)+0,w
 11134  07AB  07BA               	addwf	(___lldiv@counter),f
 11135  07AC  2FAD               	goto	l3228
 11136                           	line	15
 11137                           	
 11138  07AD                     l789:	
 11139                           	line	12
 11140                           	
 11141  07AD                     l3228:	
 11142  07AD  1FB0               	btfss	(___lldiv@divisor+3),(31)&7
 11143  07AE  2FB0               	goto	u3071
 11144  07AF  2FB1               	goto	u3070
 11145  07B0                     u3071:
 11146  07B0  2F9F               	goto	l3226
 11147  07B1                     u3070:
 11148  07B1  2FB3               	goto	l3230
 11149                           	
 11150  07B2                     l791:	
 11151  07B2  2FB3               	goto	l3230
 11152                           	line	16
 11153                           	
 11154  07B3                     l792:	
 11155                           	line	17
 11156                           	
 11157  07B3                     l3230:	
 11158  07B3  3001               	movlw	01h
 11159  07B4  00B5               	movwf	(??___lldiv+0)+0
 11160  07B5                     u3085:
 11161  07B5  1003               	clrc
 11162  07B6  0DB6               	rlf	(___lldiv@quotient),f
 11163  07B7  0DB7               	rlf	(___lldiv@quotient+1),f
 11164  07B8  0DB8               	rlf	(___lldiv@quotient+2),f
 11165  07B9  0DB9               	rlf	(___lldiv@quotient+3),f
 11166  07BA  0BB5               	decfsz	(??___lldiv+0)+0
 11167  07BB  2FB5               	goto	u3085
 11168                           	line	18
 11169                           	
 11170  07BC                     l3232:	
 11171  07BC  0830               	movf	(___lldiv@divisor+3),w
 11172  07BD  0234               	subwf	(___lldiv@dividend+3),w
 11173  07BE  1D03               	skipz
 11174  07BF  2FCA               	goto	u3095
 11175  07C0  082F               	movf	(___lldiv@divisor+2),w
 11176  07C1  0233               	subwf	(___lldiv@dividend+2),w
 11177  07C2  1D03               	skipz
 11178  07C3  2FCA               	goto	u3095
 11179  07C4  082E               	movf	(___lldiv@divisor+1),w
 11180  07C5  0232               	subwf	(___lldiv@dividend+1),w
 11181  07C6  1D03               	skipz
 11182  07C7  2FCA               	goto	u3095
 11183  07C8  082D               	movf	(___lldiv@divisor),w
 11184  07C9  0231               	subwf	(___lldiv@dividend),w
 11185  07CA                     u3095:
 11186  07CA  1C03               	skipc
 11187  07CB  2FCD               	goto	u3091
 11188  07CC  2FCE               	goto	u3090
 11189  07CD                     u3091:
 11190  07CD  2FDE               	goto	l3238
 11191  07CE                     u3090:
 11192                           	line	19
 11193                           	
 11194  07CE                     l3234:	
 11195  07CE  082D               	movf	(___lldiv@divisor),w
 11196  07CF  02B1               	subwf	(___lldiv@dividend),f
 11197  07D0  082E               	movf	(___lldiv@divisor+1),w
 11198  07D1  1C03               	skipc
 11199  07D2  0F2E               	incfsz	(___lldiv@divisor+1),w
 11200  07D3  02B2               	subwf	(___lldiv@dividend+1),f
 11201  07D4  082F               	movf	(___lldiv@divisor+2),w
 11202  07D5  1C03               	skipc
 11203  07D6  0F2F               	incfsz	(___lldiv@divisor+2),w
 11204  07D7  02B3               	subwf	(___lldiv@dividend+2),f
 11205  07D8  0830               	movf	(___lldiv@divisor+3),w
 11206  07D9  1C03               	skipc
 11207  07DA  0F30               	incfsz	(___lldiv@divisor+3),w
 11208  07DB  02B4               	subwf	(___lldiv@dividend+3),f
 11209                           	line	20
 11210                           	
 11211  07DC                     l3236:	
 11212  07DC  1436               	bsf	(___lldiv@quotient)+(0/8),(0)&7
 11213  07DD  2FDE               	goto	l3238
 11214                           	line	21
 11215                           	
 11216  07DE                     l793:	
 11217                           	line	22
 11218                           	
 11219  07DE                     l3238:	
 11220  07DE  3001               	movlw	01h
 11221  07DF                     u3105:
 11222  07DF  1003               	clrc
 11223  07E0  0CB0               	rrf	(___lldiv@divisor+3),f
 11224  07E1  0CAF               	rrf	(___lldiv@divisor+2),f
 11225  07E2  0CAE               	rrf	(___lldiv@divisor+1),f
 11226  07E3  0CAD               	rrf	(___lldiv@divisor),f
 11227  07E4  3EFF               	addlw	-1
 11228  07E5  1D03               	skipz
 11229  07E6  2FDF               	goto	u3105
 11230                           
 11231                           	line	23
 11232                           	
 11233  07E7                     l3240:	
 11234  07E7  3001               	movlw	low(01h)
 11235  07E8  02BA               	subwf	(___lldiv@counter),f
 11236  07E9  1D03               	btfss	status,2
 11237  07EA  2FEC               	goto	u3111
 11238  07EB  2FED               	goto	u3110
 11239  07EC                     u3111:
 11240  07EC  2FB3               	goto	l3230
 11241  07ED                     u3110:
 11242  07ED  2FEF               	goto	l3242
 11243                           	
 11244  07EE                     l794:	
 11245  07EE  2FEF               	goto	l3242
 11246                           	line	24
 11247                           	
 11248  07EF                     l788:	
 11249                           	line	25
 11250                           	
 11251  07EF                     l3242:	
 11252  07EF  0839               	movf	(___lldiv@quotient+3),w
 11253  07F0  00B0               	movwf	(?___lldiv+3)
 11254  07F1  0838               	movf	(___lldiv@quotient+2),w
 11255  07F2  00AF               	movwf	(?___lldiv+2)
 11256  07F3  0837               	movf	(___lldiv@quotient+1),w
 11257  07F4  00AE               	movwf	(?___lldiv+1)
 11258  07F5  0836               	movf	(___lldiv@quotient),w
 11259  07F6  00AD               	movwf	(?___lldiv)
 11260                           
 11261  07F7  2FF8               	goto	l795
 11262                           	
 11263  07F8                     l3244:	
 11264                           	line	26
 11265                           	
 11266  07F8                     l795:	
 11267  07F8  0008               	return
 11268                           	opt stack 0
 11269                           GLOBAL	__end_of___lldiv
 11270  07F9                     	__end_of___lldiv:
 11271                           	signat	___lldiv,8316
 11272                           	global	_isr
 11273                           
 11274 ;; *************** function _isr *****************
 11275 ;; Defined at:
 11276 ;;		line 186 in file "PR23.c"
 11277 ;; Parameters:    Size  Location     Type
 11278 ;;		None
 11279 ;; Auto vars:     Size  Location     Type
 11280 ;;  receive_data    1    6[COMMON] unsigned char 
 11281 ;; Return value:  Size  Location     Type
 11282 ;;		None               void
 11283 ;; Registers used:
 11284 ;;		wreg, fsr0l, fsr0h, status,2, status,0
 11285 ;; Tracked objects:
 11286 ;;		On entry : 0/0
 11287 ;;		On exit  : 0/0
 11288 ;;		Unchanged: 0/0
 11289 ;; Data sizes:     COMMON   BANK0   BANK1   BANK3   BANK2
 11290 ;;      Params:         0       0       0       0       0
 11291 ;;      Locals:         1       0       0       0       0
 11292 ;;      Temps:          6       0       0       0       0
 11293 ;;      Totals:         7       0       0       0       0
 11294 ;;Total ram usage:        7 bytes
 11295 ;; Hardware stack levels used:    1
 11296 ;; This function calls:
 11297 ;;		Nothing
 11298 ;; This function is called by:
 11299 ;;		Interrupt level 1
 11300 ;; This function uses a non-reentrant model
 11301 ;;
 11302                           psect	text1425,local,class=CODE,delta=2,merge=1
 11303                           global __ptext1425
 11304  179B                     __ptext1425:	;psect for function _isr
 11305                           psect	text1425
 11306                           	file	"PR23.c"
 11307                           	line	186
 11308                           	global	__size_of_isr
 11309  0065                     	__size_of_isr	equ	__end_of_isr-_isr
 11310                           	
 11311  179B                     _isr:	
 11312                           	opt	stack 1
 11313                           ; Regs used in _isr: [wreg-fsr0h+status,2+status,0]
 11314                           psect	intentry,class=CODE,delta=2
 11315                           global __pintentry
 11316  0004                     __pintentry:
 11317                           global interrupt_function
 11318  0004                     interrupt_function:
 11319                           	global saved_w
 11320  007E                     	saved_w	set	btemp+0
 11321  0004  00FE               	movwf	saved_w
 11322  0005  0E03               	swapf	status,w
 11323  0006  00F2               	movwf	(??_isr+2)
 11324  0007  0804               	movf	fsr0,w
 11325  0008  00F3               	movwf	(??_isr+3)
 11326  0009  080A               	movf	pclath,w
 11327  000A  00F4               	movwf	(??_isr+4)
 11328  000B  1283               	bcf	status, 5	;RP0=0, select bank0
 11329  000C  1303               	bcf	status, 6	;RP1=0, select bank0
 11330  000D  087F               	movf	btemp+1,w
 11331  000E  00F5               	movwf	(??_isr+5)
 11332  000F  160A  118A  2F9B   	ljmp	_isr
 11333                           psect	text1425
 11334                           	line	188
 11335                           	
 11336  179B                     i1l2156:	
 11337                           ;PR23.c: 187: static unsigned char i;
 11338                           ;PR23.c: 188: unsigned char receive_data = 0;
 11339  179B  01F6               	clrf	(isr@receive_data)
 11340                           	line	191
 11341                           ;PR23.c: 191: if(RBIF)
 11342  179C  1C0B               	btfss	(88/8),(88)&7	;volatile
 11343  179D  2F9F               	goto	u158_21
 11344  179E  2FA0               	goto	u158_20
 11345  179F                     u158_21:
 11346  179F  2FBE               	goto	i1l2170
 11347  17A0                     u158_20:
 11348                           	line	194
 11349                           	
 11350  17A0                     i1l2158:	
 11351                           ;PR23.c: 192: {
 11352                           ;PR23.c: 194: if (RB4 == 1)
 11353  17A0  1E06               	btfss	(52/8),(52)&7	;volatile
 11354  17A1  2FA3               	goto	u159_21
 11355  17A2  2FA4               	goto	u159_20
 11356  17A3                     u159_21:
 11357  17A3  2FA8               	goto	i1l198
 11358  17A4                     u159_20:
 11359                           	line	196
 11360                           	
 11361  17A4                     i1l2160:	
 11362                           ;PR23.c: 195: {
 11363                           ;PR23.c: 196: TMR1H = 0;
 11364  17A4  018F               	clrf	(15)	;volatile
 11365                           	line	197
 11366                           ;PR23.c: 197: TMR1L = 0;
 11367  17A5  018E               	clrf	(14)	;volatile
 11368                           	line	198
 11369                           	
 11370  17A6                     i1l2162:	
 11371                           ;PR23.c: 198: TMR1ON = 1;
 11372  17A6  1410               	bsf	(128/8),(128)&7	;volatile
 11373                           	line	199
 11374                           ;PR23.c: 199: }
 11375  17A7  2FBC               	goto	i1l2168
 11376                           	line	200
 11377                           	
 11378  17A8                     i1l198:	
 11379                           	line	202
 11380                           ;PR23.c: 200: else
 11381                           ;PR23.c: 201: {
 11382                           ;PR23.c: 202: TMR1ON = 0;
 11383  17A8  1010               	bcf	(128/8),(128)&7	;volatile
 11384                           	line	203
 11385                           	
 11386  17A9                     i1l2164:	
 11387                           ;PR23.c: 203: pulse_width = TMR1H;
 11388  17A9  080F               	movf	(15),w	;volatile
 11389  17AA  00F0               	movwf	(??_isr+0)+0+0
 11390  17AB  01F1               	clrf	(??_isr+0)+0+1
 11391  17AC  0870               	movf	0+(??_isr+0)+0,w
 11392  17AD  00F7               	movwf	(_pulse_width)
 11393  17AE  0871               	movf	1+(??_isr+0)+0,w
 11394  17AF  00F8               	movwf	(_pulse_width+1)
 11395                           	line	204
 11396                           	
 11397  17B0                     i1l2166:	
 11398                           ;PR23.c: 204: pulse_width = (pulse_width << 8) + TMR1L;
 11399  17B0  0877               	movf	(_pulse_width),w
 11400  17B1  00F1               	movwf	(??_isr+0)+0+1
 11401  17B2  01F0               	clrf	(??_isr+0)+0
 11402  17B3  080E               	movf	(14),w	;volatile
 11403  17B4  0770               	addwf	0+(??_isr+0)+0,w
 11404  17B5  00F7               	movwf	(_pulse_width)
 11405  17B6  3000               	movlw	0
 11406  17B7  1803               	skipnc
 11407  17B8  3001               	movlw	1
 11408  17B9  0771               	addwf	1+(??_isr+0)+0,w
 11409  17BA  00F8               	movwf	1+(_pulse_width)
 11410  17BB  2FBC               	goto	i1l2168
 11411                           	line	205
 11412                           	
 11413  17BC                     i1l199:	
 11414                           	line	207
 11415                           	
 11416  17BC                     i1l2168:	
 11417                           ;PR23.c: 205: }
 11418                           ;PR23.c: 207: RBIF = 0;
 11419  17BC  100B               	bcf	(88/8),(88)&7	;volatile
 11420  17BD  2FBE               	goto	i1l2170
 11421                           	line	208
 11422                           	
 11423  17BE                     i1l197:	
 11424                           	line	210
 11425                           	
 11426  17BE                     i1l2170:	
 11427                           ;PR23.c: 208: }
 11428                           ;PR23.c: 210: if(RCIF)
 11429  17BE  1E8C               	btfss	(101/8),(101)&7	;volatile
 11430  17BF  2FC1               	goto	u160_21
 11431  17C0  2FC2               	goto	u160_20
 11432  17C1                     u160_21:
 11433  17C1  2FF5               	goto	i1l207
 11434  17C2                     u160_20:
 11435                           	line	212
 11436                           	
 11437  17C2                     i1l2172:	
 11438                           ;PR23.c: 211: {
 11439                           ;PR23.c: 212: if(OERR == 1)
 11440  17C2  1C98               	btfss	(193/8),(193)&7	;volatile
 11441  17C3  2FC5               	goto	u161_21
 11442  17C4  2FC6               	goto	u161_20
 11443  17C5                     u161_21:
 11444  17C5  2FCB               	goto	i1l2178
 11445  17C6                     u161_20:
 11446                           	line	214
 11447                           	
 11448  17C6                     i1l2174:	
 11449                           ;PR23.c: 213: {
 11450                           ;PR23.c: 214: CREN = 0;
 11451  17C6  1218               	bcf	(196/8),(196)&7	;volatile
 11452                           	line	215
 11453                           ;PR23.c: 215: CREN = 1;
 11454  17C7  1618               	bsf	(196/8),(196)&7	;volatile
 11455                           	line	216
 11456                           	
 11457  17C8                     i1l2176:	
 11458                           ;PR23.c: 216: if(RCREG);
 11459  17C8  081A               	movf	(26),w	;volatile
 11460  17C9  2FF5               	goto	i1l207
 11461                           	
 11462  17CA                     i1l202:	
 11463                           	line	217
 11464                           ;PR23.c: 217: }
 11465  17CA  2FF5               	goto	i1l207
 11466                           	line	218
 11467                           	
 11468  17CB                     i1l201:	
 11469                           	line	220
 11470                           	
 11471  17CB                     i1l2178:	
 11472                           ;PR23.c: 218: else
 11473                           ;PR23.c: 219: {
 11474                           ;PR23.c: 220: receive_data = RCREG;
 11475  17CB  081A               	movf	(26),w	;volatile
 11476  17CC  00F0               	movwf	(??_isr+0)+0
 11477  17CD  0870               	movf	(??_isr+0)+0,w
 11478  17CE  00F6               	movwf	(isr@receive_data)
 11479                           	line	221
 11480                           ;PR23.c: 221: if (receive_data == 'R') data[i=0] = receive_data;
 11481  17CF  0876               	movf	(isr@receive_data),w
 11482  17D0  3A52               	xorlw	052h
 11483  17D1  1D03               	skipz
 11484  17D2  2FD4               	goto	u162_21
 11485  17D3  2FD5               	goto	u162_20
 11486  17D4                     u162_21:
 11487  17D4  2FDF               	goto	i1l2182
 11488  17D5                     u162_20:
 11489                           	
 11490  17D5                     i1l2180:	
 11491  17D5  0876               	movf	(isr@receive_data),w
 11492  17D6  00F0               	movwf	(??_isr+0)+0
 11493  17D7  3000               	movlw	(0)
 11494  17D8  00F9               	movwf	(isr@i)
 11495  17D9  3E5F               	addlw	_data&0ffh
 11496  17DA  0084               	movwf	fsr0
 11497  17DB  0870               	movf	(??_isr+0)+0,w
 11498  17DC  1383               	bcf	status, 7	;select IRP bank0
 11499  17DD  0080               	movwf	indf
 11500  17DE  2FF5               	goto	i1l207
 11501                           	line	222
 11502                           	
 11503  17DF                     i1l204:	
 11504                           	
 11505  17DF                     i1l2182:	
 11506                           ;PR23.c: 222: else if (data[0] == 'R') data [++i] = receive_data;
 11507  17DF  085F               	movf	(_data),w
 11508  17E0  3A52               	xorlw	052h
 11509  17E1  1D03               	skipz
 11510  17E2  2FE4               	goto	u163_21
 11511  17E3  2FE5               	goto	u163_20
 11512  17E4                     u163_21:
 11513  17E4  2FF5               	goto	i1l207
 11514  17E5                     u163_20:
 11515                           	
 11516  17E5                     i1l2184:	
 11517  17E5  0876               	movf	(isr@receive_data),w
 11518  17E6  00F0               	movwf	(??_isr+0)+0
 11519  17E7  3001               	movlw	(01h)
 11520  17E8  00F1               	movwf	(??_isr+1)+0
 11521  17E9  0871               	movf	(??_isr+1)+0,w
 11522  17EA  07F9               	addwf	(isr@i),f
 11523  17EB  0879               	movf	((isr@i)),w
 11524  17EC  3E5F               	addlw	_data&0ffh
 11525  17ED  0084               	movwf	fsr0
 11526  17EE  0870               	movf	(??_isr+0)+0,w
 11527  17EF  1383               	bcf	status, 7	;select IRP bank0
 11528  17F0  0080               	movwf	indf
 11529  17F1  2FF5               	goto	i1l207
 11530                           	
 11531  17F2                     i1l206:	
 11532  17F2  2FF5               	goto	i1l207
 11533                           	line	223
 11534                           	
 11535  17F3                     i1l205:	
 11536  17F3  2FF5               	goto	i1l207
 11537                           	
 11538  17F4                     i1l203:	
 11539  17F4  2FF5               	goto	i1l207
 11540                           	line	224
 11541                           	
 11542  17F5                     i1l200:	
 11543                           	line	225
 11544                           	
 11545  17F5                     i1l207:	
 11546  17F5  0875               	movf	(??_isr+5),w
 11547  17F6  00FF               	movwf	btemp+1
 11548  17F7  0874               	movf	(??_isr+4),w
 11549  17F8  008A               	movwf	pclath
 11550  17F9  0873               	movf	(??_isr+3),w
 11551  17FA  0084               	movwf	fsr0
 11552  17FB  0E72               	swapf	(??_isr+2)^0FFFFFF80h,w
 11553  17FC  0083               	movwf	status
 11554  17FD  0EFE               	swapf	saved_w,f
 11555  17FE  0E7E               	swapf	saved_w,w
 11556  17FF  0009               	retfie
 11557                           	opt stack 0
 11558                           GLOBAL	__end_of_isr
 11559  1800                     	__end_of_isr:
 11560                           	signat	_isr,88
 11561                           psect	text1426,local,class=CODE,delta=2,merge=1
 11562                           global __ptext1426
 11563  0000                     __ptext1426:	;psect for function _isr
 11564                           	global	btemp
 11565  007E                     	btemp set 07Eh
 11566                           
 11567                           	DABS	1,126,2	;btemp
 11568                           	global	wtemp0
 11569  007E                     	wtemp0 set btemp


Data Sizes:
    Strings     524
    Constant    159
    Data        10
    BSS         14
    Persistent  0
    Stack       0

Auto Spaces:
    Space          Size  Autos    Used
    COMMON           14      7      10
    BANK0            80     63      74
    BANK1            80      0      10
    BANK3            96      0       0
    BANK2            96      0       0

Pointer List with Targets:

    ?_us_value	unsigned int  size(1) Largest target is 0

    ?___wmul	unsigned int  size(1) Largest target is 0

    ?___lmul	unsigned long  size(1) Largest target is 0

    ?_read_adc	unsigned int  size(1) Largest target is 0

    ?___lldiv	unsigned long  size(1) Largest target is 0

    ?___lwmod	unsigned int  size(1) Largest target is 4
		 -> analog_sen@voltage(BANK0[4]), 

    ?___lwdiv	unsigned int  size(1) Largest target is 0

    uart_string_nl@string	PTR const unsigned char  size(2) Largest target is 33
		 -> STR_45(CODE[17]), STR_43(CODE[11]), STR_41(CODE[12]), STR_39(CODE[10]), 
		 -> STR_37(CODE[9]), STR_35(CODE[33]), STR_34(CODE[21]), STR_33(CODE[22]), 
		 -> STR_32(CODE[20]), STR_31(CODE[19]), STR_30(CODE[29]), STR_29(CODE[10]), 

    uart_string@string	PTR const unsigned char  size(2) Largest target is 33
		 -> STR_45(CODE[17]), STR_43(CODE[11]), STR_41(CODE[12]), STR_39(CODE[10]), 
		 -> STR_37(CODE[9]), STR_35(CODE[33]), STR_34(CODE[21]), STR_33(CODE[22]), 
		 -> STR_32(CODE[20]), STR_31(CODE[19]), STR_30(CODE[29]), STR_29(CODE[10]), 

    lcd_string@s	PTR const unsigned char  size(2) Largest target is 18
		 -> STR_49(CODE[7]), STR_48(CODE[10]), STR_47(CODE[13]), STR_46(CODE[15]), 
		 -> STR_44(CODE[16]), STR_42(CODE[10]), STR_40(CODE[11]), STR_38(CODE[9]), 
		 -> STR_36(CODE[8]), STR_28(CODE[18]), STR_27(CODE[15]), STR_26(CODE[10]), 
		 -> STR_25(CODE[16]), STR_24(CODE[4]), STR_23(CODE[3]), STR_22(CODE[7]), 
		 -> STR_21(CODE[15]), STR_20(CODE[4]), STR_19(CODE[5]), STR_18(CODE[7]), 
		 -> STR_17(CODE[5]), STR_16(CODE[5]), STR_15(CODE[5]), STR_14(CODE[16]), 
		 -> STR_13(CODE[4]), STR_12(CODE[11]), STR_11(CODE[8]), STR_10(CODE[9]), 
		 -> STR_9(CODE[11]), STR_8(CODE[11]), STR_7(CODE[8]), STR_6(CODE[11]), 
		 -> STR_5(CODE[11]), STR_4(CODE[9]), STR_3(CODE[8]), STR_2(CODE[15]), 
		 -> STR_1(CODE[16]), code_version(CODE[17]), pr23_rev(CODE[14]), multifunction_robot(CODE[17]), 
		 -> diy_project(CODE[16]), cytron_website(CODE[15]), cytron_tech(CODE[14]), SKPS(CODE[7]), 
		 -> XB(CODE[9]), AS(CODE[16]), US(CODE[17]), line(CODE[17]), 

    mode_string	PTR const unsigned char [5] size(2) Largest target is 17
		 -> SKPS(CODE[7]), XB(CODE[9]), AS(CODE[16]), US(CODE[17]), 
		 -> line(CODE[17]), 


Critical Paths under _main in COMMON

    None.

Critical Paths under _isr in COMMON

    None.

Critical Paths under _main in BANK0

    _main->_ultrasonic
    _lcd_init->_lcd_config
    _line_follow->_lcd_string
    _ultrasonic->_us_value
    _analog_sen->_read_adc
    _wireless_xbee->_lcd_clr_line
    _SKPS_PScon->_lcd_clr_line
    _beep->_delay_ms
    _lcd_clr->_lcd_config
    _lcd_string->_lcd_char
    _lcd_clr_line->_lcd_char
    _lcd_2ndline->_lcd_config
    _lcd_home->_lcd_config
    _lcd_goto->_lcd_config
    _lcd_config->_delay_ms
    _lcd_dis_num->_lcd_char
    _lcd_char->_delay_ms
    _e_pulse->_delay_ms
    _uart_string_nl->_uart_string
    _uart_string->_uart_send
    _skps->_uart_send
    _us_value->_read_adc
    _read_adc->___lldiv
    ___lldiv->___lmul

Critical Paths under _isr in BANK0

    None.

Critical Paths under _main in BANK1

    None.

Critical Paths under _isr in BANK1

    None.

Critical Paths under _main in BANK3

    None.

Critical Paths under _isr in BANK3

    None.

Critical Paths under _main in BANK2

    None.

Critical Paths under _isr in BANK2

    None.

Call Graph Tables:

 ---------------------------------------------------------------------------------
 (Depth) Function   	        Calls       Base Space   Used Autos Params    Refs
 ---------------------------------------------------------------------------------
 (0) _main                                                 3     3      0   10799
                                             60 BANK0      3     3      0
                               _init
                           _lcd_init
                               _beep
                            _lcd_clr
                         _lcd_string
                        _lcd_2ndline
                           _delay_ms
                       _lcd_clr_line
                           _lcd_home
                        _line_follow
                         _ultrasonic
                         _analog_sen
                      _wireless_xbee
                         _SKPS_PScon
 ---------------------------------------------------------------------------------
 (1) _init                                                 0     0      0      97
                           _adc_init
                     _interrupt_init
                 _disable_global_int
                           _lcd_init
                               _stop
 ---------------------------------------------------------------------------------
 (1) _lcd_init                                             0     0      0      97
                           _delay_ms
                         _lcd_config
 ---------------------------------------------------------------------------------
 (1) _line_follow                                          2     2      0     435
                                             11 BANK0      2     2      0
                            _lcd_clr
                         _lcd_string
                            _forward
                        _lcd_2ndline
 ---------------------------------------------------------------------------------
 (1) _ultrasonic                                           4     4      0    3287
                                             56 BANK0      4     4      0
                            _lcd_clr
                         _lcd_string
                           _lcd_goto
                        _lcd_2ndline
                               _beep
                       _lcd_clr_line
                        _timer1_init
                  _enable_global_int
                          _uart_init
                           _delay_ms
                 _disable_global_int
                           _us_value
                               _stop
                        _lcd_dis_num
                            _forward
                           _backward
 ---------------------------------------------------------------------------------
 (1) _analog_sen                                           9     9      0    2654
                                             45 BANK0      9     9      0
                            _lcd_clr
                         _lcd_string
                        _lcd_2ndline
                           _lcd_goto
                           _read_adc
                             ___lmul
                            ___lldiv
                        _lcd_dis_num
                           _lcd_char
                           _backward
                               _stop
                            _forward
 ---------------------------------------------------------------------------------
 (1) _wireless_xbee                                        2     2      0    1170
                                             12 BANK0      2     2      0
                 _disable_global_int
                          _uart_init
                            _lcd_clr
                         _lcd_string
                        _lcd_2ndline
                           _delay_ms
                       _lcd_clr_line
                           _uart_rec
                               _beep
                     _uart_string_nl
                               _stop
                            _forward
                           _lcd_goto
                           _backward
                              _right
                               _left
 ---------------------------------------------------------------------------------
 (1) _SKPS_PScon                                           5     5      0    2072
                                             12 BANK0      5     5      0
                 _disable_global_int
                               _stop
                            _lcd_clr
                         _lcd_string
                        _lcd_2ndline
                           _delay_ms
                       _lcd_clr_line
                           _lcd_goto
                          _uart_init
                               _beep
                               _skps
                            _forward
                           _backward
                               _left
                              _right
 ---------------------------------------------------------------------------------
 (2) _beep                                                 1     1      0      53
                                              8 BANK0      1     1      0
                           _delay_ms
 ---------------------------------------------------------------------------------
 (2) _lcd_clr                                              0     0      0      97
                         _lcd_config
                           _delay_ms
 ---------------------------------------------------------------------------------
 (2) _lcd_string                                           2     0      2     171
                                              9 BANK0      2     0      2
                           _lcd_char
 ---------------------------------------------------------------------------------
 (2) _lcd_clr_line                                         3     3      0     358
                                              9 BANK0      3     3      0
                           _lcd_home
                        _lcd_2ndline
                           _lcd_char
 ---------------------------------------------------------------------------------
 (3) _lcd_2ndline                                          0     0      0      75
                         _lcd_config
 ---------------------------------------------------------------------------------
 (3) _lcd_home                                             0     0      0      75
                         _lcd_config
 ---------------------------------------------------------------------------------
 (2) _lcd_goto                                             1     1      0     106
                                              9 BANK0      1     1      0
                         _lcd_config
 ---------------------------------------------------------------------------------
 (3) _lcd_config                                           1     1      0      75
                                              8 BANK0      1     1      0
                           _delay_ms
                            _e_pulse
 ---------------------------------------------------------------------------------
 (2) _lcd_dis_num                                         14    12      2    1166
                                              9 BANK0     14    12      2
                            ___lwdiv
                            ___lwmod
                           _lcd_char
 ---------------------------------------------------------------------------------
 (3) _lcd_char                                             1     1      0      75
                                              8 BANK0      1     1      0
                           _delay_ms
                            _e_pulse
 ---------------------------------------------------------------------------------
 (4) _e_pulse                                              0     0      0      22
                           _delay_ms
 ---------------------------------------------------------------------------------
 (2) _uart_init                                            0     0      0       0
 ---------------------------------------------------------------------------------
 (2) _uart_string_nl                                       2     0      2     158
                                              3 BANK0      2     0      2
                        _uart_string
                          _uart_send
 ---------------------------------------------------------------------------------
 (3) _uart_string                                          2     0      2      96
                                              1 BANK0      2     0      2
                          _uart_send
 ---------------------------------------------------------------------------------
 (2) _skps                                                 1     1      0      62
                                              1 BANK0      1     1      0
                          _uart_send
                           _uart_rec
 ---------------------------------------------------------------------------------
 (3) _uart_send                                            1     1      0      31
                                              0 BANK0      1     1      0
 ---------------------------------------------------------------------------------
 (3) _uart_rec                                             0     0      0       0
 ---------------------------------------------------------------------------------
 (2) _adc_init                                             0     0      0       0
 ---------------------------------------------------------------------------------
 (2) _timer1_init                                          0     0      0       0
 ---------------------------------------------------------------------------------
 (2) _interrupt_init                                       0     0      0       0
 ---------------------------------------------------------------------------------
 (2) _enable_global_int                                    0     0      0       0
 ---------------------------------------------------------------------------------
 (2) _disable_global_int                                   0     0      0       0
 ---------------------------------------------------------------------------------
 (2) _stop                                                 0     0      0       0
 ---------------------------------------------------------------------------------
 (2) _forward                                              0     0      0       0
 ---------------------------------------------------------------------------------
 (2) _us_value                                            11     9      2     945
                                             45 BANK0     11     9      2
                           _read_adc
                             ___lmul
                            ___lldiv
                             ___wmul
 ---------------------------------------------------------------------------------
 (2) _read_adc                                            18    16      2     413
                                             27 BANK0     18    16      2
                           _delay_ms
                            ___lldiv
 ---------------------------------------------------------------------------------
 (3) _delay_ms                                             8     4      4      22
                                              0 BANK0      8     4      4
 ---------------------------------------------------------------------------------
 (2) _backward                                             0     0      0       0
 ---------------------------------------------------------------------------------
 (2) _right                                                0     0      0       0
 ---------------------------------------------------------------------------------
 (2) _left                                                 0     0      0       0
 ---------------------------------------------------------------------------------
 (3) ___wmul                                               6     2      4     136
                                              0 BANK0      6     2      4
 ---------------------------------------------------------------------------------
 (3) ___lwdiv                                              8     4      4     162
                                              0 BANK0      8     4      4
 ---------------------------------------------------------------------------------
 (3) ___lwmod                                              6     2      4     159
                                              0 BANK0      6     2      4
 ---------------------------------------------------------------------------------
 (2) ___lmul                                              13     5      8      92
                                              0 BANK0     13     5      8
 ---------------------------------------------------------------------------------
 (2) ___lldiv                                             14     6      8     162
                                             13 BANK0     14     6      8
                             ___lmul (ARG)
 ---------------------------------------------------------------------------------
 Estimated maximum stack depth 4
 ---------------------------------------------------------------------------------
 (Depth) Function   	        Calls       Base Space   Used Autos Params    Refs
 ---------------------------------------------------------------------------------
 (7) _isr                                                  7     7      0      68
                                              0 COMMON     7     7      0
 ---------------------------------------------------------------------------------
 Estimated maximum stack depth 7
 ---------------------------------------------------------------------------------

 Call Graph Graphs:

 _main (ROOT)
   _init
     _adc_init
     _interrupt_init
     _disable_global_int
     _lcd_init
       _delay_ms
       _lcd_config
         _delay_ms
         _e_pulse
           _delay_ms
     _stop
   _lcd_init
     _delay_ms
     _lcd_config
       _delay_ms
       _e_pulse
         _delay_ms
   _beep
     _delay_ms
   _lcd_clr
     _lcd_config
       _delay_ms
       _e_pulse
         _delay_ms
     _delay_ms
   _lcd_string
     _lcd_char
       _delay_ms
       _e_pulse
         _delay_ms
   _lcd_2ndline
     _lcd_config
       _delay_ms
       _e_pulse
         _delay_ms
   _delay_ms
   _lcd_clr_line
     _lcd_home
       _lcd_config
         _delay_ms
         _e_pulse
           _delay_ms
     _lcd_2ndline
       _lcd_config
         _delay_ms
         _e_pulse
           _delay_ms
     _lcd_char
       _delay_ms
       _e_pulse
         _delay_ms
   _lcd_home
     _lcd_config
       _delay_ms
       _e_pulse
         _delay_ms
   _line_follow
     _lcd_clr
       _lcd_config
         _delay_ms
         _e_pulse
           _delay_ms
       _delay_ms
     _lcd_string
       _lcd_char
         _delay_ms
         _e_pulse
           _delay_ms
     _forward
     _lcd_2ndline
       _lcd_config
         _delay_ms
         _e_pulse
           _delay_ms
   _ultrasonic
     _lcd_clr
       _lcd_config
         _delay_ms
         _e_pulse
           _delay_ms
       _delay_ms
     _lcd_string
       _lcd_char
         _delay_ms
         _e_pulse
           _delay_ms
     _lcd_goto
       _lcd_config
         _delay_ms
         _e_pulse
           _delay_ms
     _lcd_2ndline
       _lcd_config
         _delay_ms
         _e_pulse
           _delay_ms
     _beep
       _delay_ms
     _lcd_clr_line
       _lcd_home
         _lcd_config
           _delay_ms
           _e_pulse
             _delay_ms
       _lcd_2ndline
         _lcd_config
           _delay_ms
           _e_pulse
             _delay_ms
       _lcd_char
         _delay_ms
         _e_pulse
           _delay_ms
     _timer1_init
     _enable_global_int
     _uart_init
     _delay_ms
     _disable_global_int
     _us_value
       _read_adc
         _delay_ms
         ___lldiv
           ___lmul (ARG)
       ___lmul
       ___lldiv
         ___lmul (ARG)
       ___wmul
     _stop
     _lcd_dis_num
       ___lwdiv
       ___lwmod
       _lcd_char
         _delay_ms
         _e_pulse
           _delay_ms
     _forward
     _backward
   _analog_sen
     _lcd_clr
       _lcd_config
         _delay_ms
         _e_pulse
           _delay_ms
       _delay_ms
     _lcd_string
       _lcd_char
         _delay_ms
         _e_pulse
           _delay_ms
     _lcd_2ndline
       _lcd_config
         _delay_ms
         _e_pulse
           _delay_ms
     _lcd_goto
       _lcd_config
         _delay_ms
         _e_pulse
           _delay_ms
     _read_adc
       _delay_ms
       ___lldiv
         ___lmul (ARG)
     ___lmul
     ___lldiv
       ___lmul (ARG)
     _lcd_dis_num
       ___lwdiv
       ___lwmod
       _lcd_char
         _delay_ms
         _e_pulse
           _delay_ms
     _lcd_char
       _delay_ms
       _e_pulse
         _delay_ms
     _backward
     _stop
     _forward
   _wireless_xbee
     _disable_global_int
     _uart_init
     _lcd_clr
       _lcd_config
         _delay_ms
         _e_pulse
           _delay_ms
       _delay_ms
     _lcd_string
       _lcd_char
         _delay_ms
         _e_pulse
           _delay_ms
     _lcd_2ndline
       _lcd_config
         _delay_ms
         _e_pulse
           _delay_ms
     _delay_ms
     _lcd_clr_line
       _lcd_home
         _lcd_config
           _delay_ms
           _e_pulse
             _delay_ms
       _lcd_2ndline
         _lcd_config
           _delay_ms
           _e_pulse
             _delay_ms
       _lcd_char
         _delay_ms
         _e_pulse
           _delay_ms
     _uart_rec
     _beep
       _delay_ms
     _uart_string_nl
       _uart_string
         _uart_send
       _uart_send
     _stop
     _forward
     _lcd_goto
       _lcd_config
         _delay_ms
         _e_pulse
           _delay_ms
     _backward
     _right
     _left
   _SKPS_PScon
     _disable_global_int
     _stop
     _lcd_clr
       _lcd_config
         _delay_ms
         _e_pulse
           _delay_ms
       _delay_ms
     _lcd_string
       _lcd_char
         _delay_ms
         _e_pulse
           _delay_ms
     _lcd_2ndline
       _lcd_config
         _delay_ms
         _e_pulse
           _delay_ms
     _delay_ms
     _lcd_clr_line
       _lcd_home
         _lcd_config
           _delay_ms
           _e_pulse
             _delay_ms
       _lcd_2ndline
         _lcd_config
           _delay_ms
           _e_pulse
             _delay_ms
       _lcd_char
         _delay_ms
         _e_pulse
           _delay_ms
     _lcd_goto
       _lcd_config
         _delay_ms
         _e_pulse
           _delay_ms
     _uart_init
     _beep
       _delay_ms
     _skps
       _uart_send
       _uart_rec
     _forward
     _backward
     _left
     _right

 _isr (ROOT)

 Address spaces:
Name               Size   Autos  Total    Cost      Usage
BANK3               60      0       0       9        0.0%
BITBANK3            60      0       0       8        0.0%
SFR3                 0      0       0       4        0.0%
BITSFR3              0      0       0       4        0.0%
BANK2               60      0       0      11        0.0%
BITBANK2            60      0       0      10        0.0%
SFR2                 0      0       0       5        0.0%
BITSFR2              0      0       0       5        0.0%
BANK1               50      0       A       7       12.5%
BITBANK1            50      0       0       6        0.0%
SFR1                 0      0       0       2        0.0%
BITSFR1              0      0       0       2        0.0%
BANK0               50     3F      4A       5       92.5%
BITBANK0            50      0       0       4        0.0%
SFR0                 0      0       0       1        0.0%
BITSFR0              0      0       0       1        0.0%
COMMON               E      7       A       1       71.4%
BITCOMMON            E      0       0       0        0.0%
CODE                 0      0       0       0        0.0%
DATA                 0      0      64      12        0.0%
ABS                  0      0      5E       3        0.0%
NULL                 0      0       0       0        0.0%
STACK                0      0       6       2        0.0%
EEDATA             100      0       0       0        0.0%


Microchip Technology PIC Macro Assembler V1.11 build 48931 
Symbol Table                                                                                   Mon Mar 18 16:02:58 2013

          analog_sen@voltage 0052                 lcd_char@data 0028                            pc 0002  
                __CFG_CP$OFF 0000                           _AS 0156                           _XB 01A1  
                         _US 0112                           fsr 0004          ___wmul@multiplicand 0022  
                _pulse_width 0077       __end_of_interrupt_init 143D                          l210 0C26  
                        l211 0C65                          l300 09DF                          l220 0C97  
                        l212 0C2E                          l301 09F4                          l221 0C79  
                        l213 0C2E                          l302 09FF                          l222 0CAA  
                        l214 0C33                          l311 1485                          l223 0C7F  
                        l215 0C47                          l240 1709                          l312 1485  
                        l320 1592                          l400 0D39                          l216 0CAB  
                        l224 0C85                          l313 148A                          l305 00F5  
                        l401 0CEE                          l225 0C8B                          l217 0C6D  
                        l330 14BE                          l314 148C                          l306 00F7  
                        l410 0D41                          l402 0CEE                          l226 0C91  
                        l218 0C6D                          l331 14C3                          l323 1527  
                        l307 00F8                          l243 15E2                          l411 0D41  
                        l403 0CF3                          l227 0CAC                          l219 0C72  
                        l332 14C5                          l308 00FB                          l252 150D  
                        l244 15C3                          l500 05B7                          l420 0E4A  
                        l412 0D46                          l404 0D2E                          l228 0CAD  
                        l237 16D8                          l341 1476                          l317 1581  
                        l261 080A                          l245 15ED                          l501 05B8  
                        l421 0DF8                          l413 0D85                          l405 0D06  
                        l229 0CAD                          l238 16CE                          l350 0895  
                        l510 00C5                          l326 14BD                          l318 156A  
                        l270 14DB                          l246 15ED                          l502 05B8  
                        l422 0E10                          l414 0D7A                          l406 0D38  
                        l239 1709                          l351 089A                          l511 00CE  
                        l327 14BA                          l335 149C                          l319 1592  
                        l255 14F4                          l423 0E49                          l415 0DB5  
                        l407 0D12                          l352 0908                          l344 086F  
                        l512 00E1                          l328 14BC                          l264 146D  
                        l440 0B51                          l432 0A3D                          l424 0E26  
                        l416 0DAA                          l408 0D1E                          l521 1443  
                        l345 0879                          l505 00CF                          l361 00FE  
                        l329 14BE                          l273 16A0                          l281 1606  
                        l441 0B52                          l433 0B42                          l425 0E48  
                        l417 0DB4                          l409 0D40                          l249 1656  
                        l346 0878                          l506 0019                          l258 1568  
                        l274 16AF                          l282 15EF                          l450 06CC  
                        l442 0B53                          l434 0B10                          l426 0E3A  
                        l418 0DB6                          l370 0E60                          l347 0893  
                        l507 00DA                          l515 1458                          l355 1466  
                        l291 092F                          l267 07FF                          l275 16AE  
                        l451 0787                          l443 0B53                          l435 0B41  
                        l427 0E47                          l419 0DEB                          l371 0E8D  
                        l524 144A                          l348 08E1                          l508 0041  
                        l364 1436                          l292 099F                          l276 16BC  
                        l284 161D                          l460 0789                          l452 06FC  
                        l436 0B23                          l428 0E4B                          l372 0FFD  
                        l380 0FF9                          l349 0895                          l509 007E  
                        l293 0966                          l277 16CC                          l285 161E  
                        l453 0786                          l437 0B40                          l429 0E4B  
                        l381 0F54                          l373 0EB4                          l622 0852  
                        l518 1451                          l358 143C                          l294 0997  
                        l278 16CC                          l286 161E                          l470 04CD  
                        l454 072C                          l446 060D                          l438 0B32  
                        l374 0FFC                          l382 0FF8                          l390 0FE8  
                        l623 0824                          l527 145F                          l295 09A9  
                        l471 05B5                          l463 043F                          l455 0785  
                        l447 060C                          l439 0B3F                          l391 0FF3  
                        l383 0F7D                          l375 0EDB                          l367 1690  
                        l632 1747                          l624 0818                          l616 1598  
                        l296 09B4                          l480 053E                          l472 04E4  
                        l464 046F                          l456 075C                          l448 0618  
                        l376 0FFB                          l384 0FF7                          l392 0FF2  
                        l633 1721                          l625 0829                          l617 15A2  
                        l297 09FF                          l473 05B4                          l481 0536  
                        l457 0784                          l449 068D                          l393 0FFE  
                        l385 0FA6                          l377 0F02                          l634 1715  
                        l626 082A                          l618 15B7                          l298 09C7  
                        l490 0580                          l482 052F                          l474 04FB  
                        l466 046B                          l458 0788                          l394 0FFF  
                        l378 0FFA                          l386 0FF6                          l635 1726  
                        l627 0843                          l619 15BE                          l299 09F5  
                        l475 05B3                          l491 0578                          l483 0532  
                        l467 0473                          l459 0789                          l395 0FFF  
                        l387 0FCE                          l379 0F2B                          l636 1727  
                        l628 0851                          l492 0571                          l476 053F  
                        l484 053D                          l468 04B6                          l388 0FF5  
                        l637 1738                          l629 0859                          l469 05B6  
                        l485 05B2                          l493 0574                          l477 051F  
                        l389 0FF4                          l638 1746                          l486 0581  
                        l494 057F                          l478 0518                          l398 0D39  
                        l639 174E                          l495 05B1                          l487 0561  
                        l479 051B                          l399 0CE8                          l496 0593  
                        l488 055A                          l497 05B0                          l489 055D  
                        l498 05A5                          l691 175A                          l499 05AF  
                        l692 1776                          l693 1791                          l790 079F  
                        l694 179A                          l791 07B2                          l792 07B3  
                        l793 07DE                          l794 07EE                          l795 07F8  
                        l788 07EF                          l789 07AD                          _GIE 005F  
                        _RB0 0030                          _RB1 0031                          _RC0 0038  
                        _RB2 0032                          _RB3 0033                          _RB4 0034  
                        _RC3 003B                          _RB5 0035                          _RE0 0048  
                        _RC4 003C                          _RB6 0036                          _RE1 0049  
                        _RC5 003D                          _RB7 0037                          _RE2 004A  
                        _PR2 0092                 __CFG_CPD$OFF 0000                          _RX9 00C6  
                        _TX9 04C6                          _isr 179B               _cytron_website 0176  
                        fsr0 0004                          indf 0000                 __CFG_FOSC$HS 0000  
          uart_string@string 0021                 lcd_dis_num@i 0036                 lcd_dis_num@j 0035  
               __CFG_LVP$OFF 0000                         l3100 0900                         l3102 0901  
                       l3200 1738                         l2312 16CD                         l3104 0908  
                       l4000 0581                         l3210 175A                         l3202 173F  
                       l2314 16CE                         l4010 0597                         l4002 0585  
                       l3220 179A                         l3212 175E                         l3204 1747  
                       l4100 00E2                         l4020 05AD                         l4012 059C  
                       l4004 058A                         l3300 0BE9                         l3230 07B3  
                       l3222 078A                         l3214 1776                         l3206 174E  
                       l4110 00EC                         l4102 00E6                         l4030 1548  
                       l4022 14F8                         l4014 05A1                         l4006 058F  
                       l3310 0C26                         l3302 0BF8                         l3240 07E7  
                       l3232 07BC                         l3224 079C                         l3216 177F  
                       l3208 174F                         l3160 080B                         l4200 1444  
                       l3080 086C                         l4120 00F7                         l4112 00ED  
                       l4104 00E7                         l4032 154B                         l4040 14E2  
                       l4024 14F9                         l3400 1695                         l4016 05A5  
                       l4008 0593                         l3320 0C45                         l3312 0C2D  
                       l3304 0BFD                         l3234 07CE                         l3226 079F  
                       l3242 07EF                         l3218 1791                         l3170 0824  
                       l3162 080F                         l4210 15A9                         l4202 143D  
                       l3090 088C                         l3082 086F                         l3074 085D  
                       l4122 1484                         l4130 157A                         l4114 00EE  
                       l4106 00E8                         l4034 1558                         l4042 14EF  
                       l4050 091E                         l4026 14FB                         l3410 16B5  
                       l3402 169A                         l4018 05AA                         l3330 0C72  
                       l3322 0C47                         l3314 0C33                         l3306 0C14  
                       l3244 07F8                         l3236 07DC                         l3228 07AD  
                       l3180 084A                         l3172 082A                         l3164 0815  
                       l4212 15B7                         l4204 1593                         l3092 0892  
                       l3084 0875                         l3076 085F                         l4140 14B0  
                       l4124 148A                         l4132 1581                         l4116 00F2  
                       l4108 00E9                         l4036 14DF                         l4060 092E  
                       l4052 091F                         l4028 1508                         l4044 0803  
                       l3420 1467                         l3412 16BB                         l3404 16A0  
                       l3500 0F1F                         l3340 0C91                         l3332 0C79  
                       l3324 0C52                         l3316 0C39                         l3308 0C1F  
                       l3238 07DE                         l3190 1715                         l3174 083B  
                       l3166 0818                         l3182 0852                         l4214 15BE  
                       l4206 1598                         l3094 089A                         l3086 0879  
                       l3078 0867                         l4150 14C5                         l4142 14B6  
                       l4126 1569                         l4134 150E                         l4118 00F5  
                       l4038 14E0                         l4070 0997                         l4062 092F  
                       l4054 0920                         l4046 090C                         l3414 16BC  
                       l3406 16A8                         l3510 0F43                         l3502 0F2F  
                       l3430 0E65                         l3422 0E4C                         l3350 1664  
                       l3334 0C7F                         l3342 0C97                         l3318 0C3F  
                       l3326 0C65                         l3270 0B58                         l3192 171C  
                       l3184 0859                         l3176 0841                         l3168 081F  
                       l4208 159C                         l3096 08D9                         l3088 0886  
                       l4160 146E                         l4144 14B8                         l4152 1490  
                       l4128 156A                         l4136 151B                         l4080 09B3  
                       l4072 0999                         l4064 094A                         l4056 0924  
                       l4048 091D                         l3416 16C2                         l3408 16AF  
                       l3600 0D1E                         l3520 0F64                         l3512 0F48  
                       l3504 0F33                         l3440 0E78                         l3432 0E6B  
                       l3424 0E4F                         l3360 167B                         l3352 1666  
                       l3344 1657                         l3336 0C85                         l3328 0C6C  
                       l3280 0B7B                         l3272 0B62                         l3194 1721  
                       l3186 170A                         l3178 0843                         l3098 08E1  
                       l4170 1434                         l4162 1460                         l4146 14BA  
                       l4154 1496                         l4138 1521                         l4090 09D8  
                       l4082 09B4                         l4066 0950                         l4074 099F  
                       l4058 0928                         l3418 16C6                         l3610 0D51  
                       l3602 0D29                         l3530 0F89                         l3522 0F6C  
                       l3514 0F58                         l3506 0F37                         l3450 0E95  
                       l3442 0E7A                         l3434 0E6F                         l3426 0E54  
                       l3370 168B                         l3362 167D                         l3354 1669  
                       l3346 165E                         l3338 0C8B                         l3290 0BBA  
                       l3282 0B80                         l3274 0B68                         l3196 1727  
                       l3188 1712                         l4180 0027                         l4172 1459  
                       l4164 1464                         l4148 14C3                         l4156 149C  
                       l4092 09DF                         l4084 09BA                         l4076 09A5  
                       l4068 0966                         l3380 15D1                         l3700 0A1B  
                       l3620 0D7A                         l3612 0D5C                         l3604 0D2E  
                       l3540 0FAE                         l3532 0F8D                         l3524 0F71  
                       l3516 0F5C                         l3508 0F3B                         l3460 0EA8  
                       l3452 0E99                         l3444 0E7C                         l3436 0E73  
                       l3428 0E60                         l3372 161F                         l3364 167F  
                       l3356 1673                         l3348 1662                         l3292 0BC9  
                       l3284 0B8B                         l3276 0B6B                         l3268 0B54  
                       l3198 1731                         l4190 00C5                         l4182 0041  
                       l4174 1452                         l4166 1437                         l4094 09ED  
                       l4086 09C7                         l4078 09AD                         l3390 15FF  
                       l3382 15E2                         l3710 0A43                         l3702 0A20  
                       l3630 0D95                         l3622 0D7F                         l3614 0D62  
                       l3606 0D46                         l3550 0FBD                         l3542 0FB2  
                       l3534 0F95                         l3526 0F81                         l3518 0F60  
                       l3470 0EC8                         l3462 0EB8                         l3454 0E9D  
                       l3446 0E81                         l3438 0E77                         l3374 1622  
                       l3366 1680                         l3358 1677                         l3294 0BCE  
                       l3286 0B9F                         l3278 0B70                         l4184 0047  
                       l4192 00CF                         l4176 0018                         l4168 00FC  
                       l4088 09D3                         l4096 09F5                         l3392 1606  
                       l3384 14C6                         l3376 15C2                         l3800 064A  
                       l3720 0ACD                         l3712 0A51                         l3704 0A2B  
                       l3640 0DCC                         l3632 0D9A                         l3624 0D85  
                       l3616 0D6D                         l3608 0D4C                         l3560 0FDE  
                       l3552 0FC2                         l3544 0FB6                         l3536 0F9A  
                       l3528 0F85                         l3480 0EE7                         l3472 0ECA  
                       l3464 0EBC                         l3456 0EA1                         l3448 0E91  
                       l3368 1686                         l3296 0BD9                         l3288 0BAA  
                       l4186 007E                         l4194 00DA                         l4178 0019  
                       l4098 09F9                         l3394 160E                         l3386 15EE  
                       l3378 15C4                         l3810 0681                         l3802 0655  
                       l3730 0B08                         l3722 0AE8                         l3714 0A87  
                       l3706 0A31                         l3650 0DEA                         l3642 0DD7  
                       l3634 0DAE                         l3626 0D8D                         l3618 0D75  
                       l3570 0FF0                         l3562 0FE4                         l3554 0FD2  
                       l3546 0FB8                         l3538 0FAA                         l3490 0F06  
                       l3482 0EEB                         l3474 0ECF                         l3466 0EC0  
                       l3458 0EA3                         l3298 0BDE                         l4196 00E1  
                       l4188 0084                         l3396 07F9                         l3388 15EF  
                       l3900 0421                         l3820 069C                         l3812 0685  
                       l3804 0660                         l3740 0B1B                         l3732 0B0C  
                       l3724 0AF5                         l3716 0A99                         l3708 0A3D  
                       l3660 0E0C                         l3644 0DE0                         l3652 0DEB  
                       l3628 0D92                         l3636 0DB6                         l3580 0CC6  
                       l3572 0CB0                         l3564 0FE5                         l3556 0FD6  
                       l3548 0FB9                         l3492 0F0A                         l3484 0EEF  
                       l3476 0EDF                         l3468 0EC4                         l4198 144B  
                       l3398 1694                         l3910 044A                         l3902 0427  
                       l3830 06C0                         l3822 06A4                         l3814 0687  
                       l3806 066B                         l3750 0B2E                         l3742 0B1F  
                       l3734 0B0E                         l3726 0AFB                         l3718 0AAB  
                       l3670 0E22                         l3662 0E0E                         l3654 0DF8  
                       l3646 0DE5                         l3638 0DC6                         l3590 0CF3  
                       l3582 0CCC                         l3574 0CB4                         l3566 0FE8  
                       l3558 0FDA                         l3494 0F0E                         l3486 0EF1  
                       l3478 0EE3                         l3920 04AF                         l3912 0455  
                       l3904 042D                         l3840 06E5                         l3824 06A9  
                       l3832 06CC                         l3816 068D                         l3808 0676  
                       l3752 0B32                         l3744 0B21                         l3728 0B03  
                       l3736 0B10                         l3760 0B42                         l3680 0E37  
                       l3672 0E24                         l3656 0E03                         l3664 0E10  
                       l3648 0DE8                         l3592 0CF9                         l3584 0CD7  
                       l3576 0CB6                         l3568 0FEE                         l3496 0F12  
                       l3488 0EF6                         l3930 04CA                         l3922 04B3  
                       l3914 0460                         l3906 0433                         l3850 070F  
                       l3842 06F0                         l3834 06D4                         l3826 06AF  
                       l3818 0697                         l3770 05C6                         l3762 0B4B  
                       l3754 0B37                         l3738 0B16                         l3746 0B23  
                       l3690 0E45                         l3682 0E38                         l3666 0E19  
                       l3674 0E26                         l3658 0E08                         l3594 0CFF  
                       l3586 0CDC                         l3578 0CBB                         l3498 0F1A  
                       l3940 04E4                         l3932 04CD                         l3924 04B6  
                       l3916 0473                         l3908 043F                         l3860 0739  
                       l3852 0715                         l3836 06D9                         l3844 06FC  
                       l3828 06B5                         l3780 05F5                         l3772 05CB  
                       l3764 05B9                         l3756 0B3B                         l3748 0B29  
                       l3692 0A00                         l3676 0E2F                         l3684 0E3A  
                       l3668 0E1E                         l3596 0D06                         l3588 0CED  
                       l3950 0501                         l3942 04EF                         l3934 04D8  
                       l3926 04C1                         l3918 04AA                         l3870 0761  
                       l3862 073F                         l3854 0720                         l3846 0704  
                       l3838 06DF                         l3790 061E                         l3782 05FB  
                       l3774 05D6                         l3766 05BC                         l3758 0B3D  
                       l3694 0A0A                         l3686 0E3F                         l3678 0E34  
                       l3598 0D12                         l3960 051B                         l3952 0506  
                       l3944 04F4                         l3936 04DD                         l3928 04C6  
                       l3880 03C7                         l3872 0767                         l3864 0745  
                       l3848 0709                         l3856 072C                         l3792 0623  
                       l3784 0600                         l3776 05DB                         l3768 05C1  
                       l3696 0A0B                         l3688 0E43                         l3970 0532  
                       l3954 050C                         l3962 051F                         l3946 04F8  
                       l3938 04E1                         l3890 03F6                         l3882 03CC  
                       l3874 076D                         l3866 0750                         l3858 0734  
                       l3794 062E                         l3786 060D                         l3778 05E6  
                       l3698 0A10                         l3980 054E                         l3964 0523  
                       l3972 0536                         l3956 0512                         l3948 04FB  
                       l3892 03FC                         l3884 03D7                         l3876 0778  
                       l3868 075C                         l3796 0634                         l3788 0618  
                       l3990 0565                         l3982 0554                         l3966 0529  
                       l3958 0518                         l3974 053F                         l3894 0402  
                       l3886 03DC                         l3878 03BD                         l3798 063F  
                       l3992 056B                         l3984 055A                         l3976 0543  
                       l3968 052F                         l3896 040D                         l3888 03E7  
                       l3994 0571                         l3986 055D                         l3978 0548  
                       l3898 041C                         l3996 0574                         l3988 0561  
                       ?_isr 0070                         l3998 0578                         _ADON 00F8  
                       STR_1 0284                         STR_2 02B2                         STR_3 0374  
                       STR_4 035A                         STR_5 02F4                         STR_6 02F4  
                       STR_7 037C                         STR_8 02E9                         STR_9 02E9  
                       _BRGH 04C2                         _CREN 00C4                         u3000 175E  
                       u3001 175D               ??_lcd_clr_line 0029                         u3011 1767  
                       u3012 176E                         u3013 1775                         u3110 07ED  
                       u3111 07EC                         u3040 1790                         u3200 169A  
                       u4000 0543                         u3120 0C2C                         u3105 07DF  
                       u3041 178F                         u3025 1778                         u3201 1699  
                       u3121 0C2B                         u3050 079C                         u3210 16A8  
                       u4010 054E                         u3130 0C32                         u3051 079B  
                       u3035 1780                         u3211 16A7                         u3131 0C31  
                       u4100 09A5                         u3220 16BA                         u4020 0554  
                       u3300 0E99                         u3140 0C45                         u4101 09A4  
                       u3221 16B9                         u4021 0553                         u3301 0E98  
                       u3141 0C44                         u3070 07B1                         u4110 09B2  
                       u3230 16CB                         u4030 0565                         u3310 0E9D  
                       u3150 0C6B                         u3071 07B0                         u4111 09B1  
                       u3231 16CA                         u3311 0E9C                         u3151 0C6A  
                       u1720 16F6                         u4200 14C2                         u4120 09BA  
                       u4040 056B                         u3400 0F06                         u3320 0EB8  
                       u3240 0E6B                         u3160 0C71                         u3065 07A1  
                       u4201 14C1                         u4121 09B9                         u4041 056A  
                       u3401 0F05                         u3321 0EB7                         u3241 0E6A  
                       u3161 0C70                         u3090 07CE                         u1730 1708  
                       u4210 0035                         u4130 09D3                         u3170 15EC  
                       u4050 0585                         u3410 0F0A                         u3330 0EBC  
                       u3250 0E6F                         u3091 07CD                         u1731 1707  
                       u4131 09D2                         u3171 15EB                         u3411 0F09  
                       u3331 0EBB                         u3251 0E6E                         u4220 0084  
                       u4140 09D8                         u3180 160E                         u4060 0597  
                       u3500 0F60                         u3420 0F0E                         u3340 0EC0  
                       u3260 0E73                         u3085 07B5                         u1725 16E9  
                       u4221 0083                         u4141 09D7                         u3181 160D  
                       u3501 0F5F                         u3421 0F0D                         u3341 0EBF  
                       u3261 0E72                         u4230 159C                         u1726 16EA  
                       u4150 09FE                         u4070 092D                         u3190 161C  
                       u3510 0F64                         u3430 0F12                         u3350 0EC4  
                       u3270 0E77                         u3095 07CA                         u4231 159B  
                       u1735 1704                         u1727 16EF                         u4215 0030  
                       u4151 09FD                         u4071 092C                         u3191 161B  
                       u3511 0F63                         u3431 0F11                         u3351 0EC3  
                       u3271 0E76                         u1728 16F0                         u2800 08E0  
                       u4160 00F2                         u4080 0950                         u3600 0FD2  
                       u3520 0F81                         u3440 0F2F                         u3360 0EDF  
                       u3280 0E91                         u1729 16F5                         u2801 08DF  
                       u4161 00F1                         u4081 094F                         u3601 0FD1  
                       u3521 0F80                         u3441 0F2E                         u3361 0EDE  
                       u3281 0E90                         u4170 1489                         u4090 099E  
                       u3610 0FD6                         u3530 0F85                         u3450 0F33  
                       u3370 0EE3                         u3290 0E95                         u4171 1488  
                       u4091 099D                         u3611 0FD5                         u3531 0F84  
                       u3451 0F32                         u3371 0EE2                         u3291 0E94  
                       u4260 15B6                         u4180 1591                         u3700 0D75  
                       u3620 0FDA                         u3540 0F89                         u3460 0F37  
                       u3380 0EE7                         u4261 15B5                         u4245 15A3  
                       u4181 1590                         u3701 0D74                         u3621 0FD9  
                       u3541 0F88                         u3461 0F36                         u3381 0EE6  
                       u2910 083B                         u2750 086C                         u4190 14B6  
                       u3710 0D8D                         u3630 0FDE                         u3550 0F8D  
                       u3470 0F3B                         u3390 0EEB                         u2911 083A  
                       u4255 15AA                         u2751 086B                         u4191 14B5  
                       u3711 0D8C                         u3631 0FDD                         u3551 0F8C  
                       u3471 0F3A                         u3391 0EEA                         u2760 0875  
                       u3800 0B16                         u3720 0DD7                         u3640 0FE4  
                       u3560 0FAA                         u3480 0F58                         u2905 082B  
                       u2761 0874                         u3801 0B15                         u3721 0DD6  
                       u3641 0FE3                         u3561 0FA9                         u3481 0F57  
                       u2930 0850                         u2770 0891                         u3810 0B29  
                       u3730 0E03                         u3650 0FEE                         u3570 0FAE  
                       u3490 0F5C                         u2931 084F                         u2915 0837  
                       u2771 0890                         u3811 0B28                         u3731 0E02  
                       u3651 0FED                         u3571 0FAD                         u3491 0F5B  
                       _PEIE 005E                         u2940 1712                         u2780 0899  
                       u3900 046B                         u3820 0617                         u3740 0E19  
                       u3660 0CEC                         u3580 0FB2                         u2941 1711  
                       u2925 0844                         u4277 16D4                         u2781 0898  
                       u3901 046A                         u3821 0616                         u3741 0E18  
                       u3661 0CEB                         u3581 0FB1                         u2870 0815  
                       u2790 08C6                         u3910 04AA                         u3830 06A4  
                       u3750 0E2F                         u3670 0CF2                         u3590 0FB6  
                       u2871 0814                         u2791 08C7                         u3911 04A9  
                       u3831 06A3                         u3751 0E2E                         u3671 0CF1  
                       u3591 0FB5                         _RBIE 005B                         u2960 1725  
                       u2792 08CC                         u3920 04C1                         u3840 06D4  
                       u3760 0A99                         u3680 0D3F                         _RBIF 0058  
                       u2961 1724                         u2793 08CD                         u3921 04C0  
                       u3841 06D3                         u3761 0A98                         u3681 0D3E  
                       u2970 1731                         u2890 0828                         u3930 04D8  
                       u3850 0704                         u3770 0AAB                         u3690 0D45  
                       u2971 1730                         u2955 1716                         u2891 0827  
                       u3931 04D7                         u3851 0703                         u3771 0AAA  
                       u3691 0D44                         _RCIE 0465                         u3940 04EF  
                       u3860 0734                         u3780 0ABA                         _RCIF 0065  
                       u2885 0819                         u3941 04EE                         u3861 0733  
                       u3781 0ABB                         u3765 0A95                         u2990 1745  
                       u3950 0501                         u3870 044A                         u3790 0B03  
                       u3782 0AC0                         u2991 1744                         u2975 172D  
                       u3871 0449                         u3791 0B02                         u3783 0AC1  
                       u3775 0AA7                         u3960 050C                         u3880 0455  
                       u2985 1739                         u3881 0454                         u3970 0512  
                       u3890 0460                         u3971 0511                         u3891 045F  
                       u3980 0523                         u3990 0529                         u3991 0528  
                       _OERR 00C1                         _SPEN 00C7                         _SKPS 01AA  
                       _TXEN 04C5                         _TXIF 0064                 __CFG_WRT$OFF 0000  
                       _beep 15BF                         _data 005F                         _main 0B54  
                       _left 143D                         _line 0134                         _init 1657  
                       _skps 148D                         btemp 007E                         _stop 1459  
         _disable_global_int 1434                         isr@i 0079                 lcd_goto@data 0029  
                       start 0012                  lcd_string@s 0029       __size_of_wireless_xbee 01D1  
              lcd_clr_line@i 002B          ?_disable_global_int 0070                        ??_isr 0070  
            isr@receive_data 0076                        ?_beep 0070       __end_of_cytron_website 0185  
                      ?_main 0070                        ?_left 0070                        ?_init 0070  
                      STR_10 0348                        STR_11 036C                        STR_20 03B2  
                      STR_12 02FF                        STR_13 03AE                        STR_21 0294  
                      STR_22 0393                        STR_14 0284                        STR_30 01D2  
                      STR_23 03BA                        STR_15 039F                        STR_31 022E  
                      STR_24 03B6                        STR_16 03A4                        STR_40 0315  
                      STR_32 021A                        STR_17 039A                        STR_41 02DD  
                      STR_25 0274                        STR_33 01EF                __CFG_WDTE$OFF 0000  
                      STR_18 0393                        STR_42 033E                        STR_26 0334  
                      STR_34 0205                        STR_19 03A9                        STR_43 030A  
                      STR_27 02C1                        STR_35 01B1                        STR_36 0384  
                      STR_44 0264                        STR_28 0241                        STR_37 0351  
                      STR_29 032A                        STR_45 0253                        STR_38 0363  
                      STR_46 02A3                        STR_39 0320                        STR_47 02D0  
                      STR_48 0334                        STR_49 038C                        ?_skps 0070  
            ?_interrupt_init 0070              __end_of___lldiv 07F9                        ?_stop 0070  
                      _T1CON 0010                        _T2CON 0012              __end_of___lwdiv 085A  
                      i1l200 17F5                        i1l201 17CB                        i1l202 17CA  
                      i1l203 17F4                        i1l204 17DF                        i1l205 17F3  
                      i1l206 17F2                        i1l207 17F5              __end_of___lwmod 174F  
                      i1l197 17BE                        i1l198 17A8                        i1l199 17BC  
               ?_line_follow 0070                        _RCREG 001A                        _TMR1H 000F  
                      _TMR1L 000E                        _SPBRG 0099                        _PORTA 0005  
                      _PORTB 0006                        _PORTC 0007                        _PORTD 0008  
                      _PORTE 0009                        _TRISA 0085                        _TRISB 0086  
                      _TRISC 0087                        _TRISD 0088                        _TRISE 0089  
                      _TXREG 0019          read_adc@temp_result 004B          ___lmul@multiplicand 0024  
              __CFG_PWRTE$ON 0000              __end_of_e_pulse 1569              __end_of_lcd_clr 14DC  
       ??_disable_global_int 0020              __end_of_forward 1459                        _right 1444  
                      main@i 005D             ??_uart_string_nl 0025               __CFG_BOREN$OFF 0000  
                      pclath 000A                  ?_SKPS_PScon 0070                        status 0003  
                      wtemp0 007E                 __end_of_SKPS 01B1              __initialization 1528  
               __end_of_beep 15EE                 __end_of_main 0CB0                 __end_of_left 1444  
               __end_of_line 0145                 __end_of_init 1691                 __end_of_skps 149D  
               __end_of_stop 1460         __end_of_code_version 0134         __size_of_lcd_2ndline 0007  
             lcd_config@data 0028                       ??_beep 0028                       ??_main 005C  
                     ??_left 0020                       ??_init 0029                       ??_skps 0021  
                     ??_stop 0020                _wireless_xbee 05B9                       _ADCON0 001F  
                     _ADCON1 009F                       _ADRESH 001E                       _ADRESL 009E  
                     _CCPR1L 0015                       _CCPR2L 001B                       ?_right 0070  
           __end_of_adc_init 1477                       i1l2160 17A4                       i1l2162 17A6  
                     i1l2170 17BE                       i1l2180 17D5                       i1l2172 17C2  
                     i1l2164 17A9                       i1l2156 179B                       i1l2182 17DF  
                     i1l2174 17C6                       i1l2166 17B0                       i1l2158 17A0  
                     i1l2184 17E5                       i1l2176 17C8                       i1l2168 17BC  
                     i1l2178 17CB                       u160_20 17C2                       u160_21 17C1  
                     u161_20 17C6                       u161_21 17C5                       u162_20 17D5  
                     u162_21 17D4                       u163_20 17E5                       u163_21 17E4  
                     u158_20 17A0                       u158_21 179F                       u159_20 17A4  
                     u159_21 17A3             __end_of_backward 1452                       _TMR1IE 0460  
                     _TMR1ON 0080             __end_of_pr23_rev 01A1             __end_of_delay_ms 170A  
           __end_of_lcd_char 14F5         __size_of_lcd_dis_num 00F7             __end_of_lcd_home 146E  
           __end_of_lcd_init 1657             __end_of_lcd_goto 080B                       ___lmul 174F  
                     ___wmul 1593                    ??___lldiv 0035                 ?_timer1_init 0070  
                  ??___lwdiv 0024                    ??___lwmod 0024             __end_of_read_adc 0909  
       __end_of_lcd_clr_line 16CD                    ??_e_pulse 0028          __size_of_SKPS_PScon 01FC  
       lcd_dis_num@num_digit 0032                    ??_lcd_clr 0029                    ??_forward 0020  
           __end_of_uart_rec 14C6                       saved_w 007E               ?_wireless_xbee 0070  
               ?_uart_string 0021             __end_of_us_value 00E2      __end_of__initialization 1544  
             __pcstackCOMMON 0070                 __pidataBANK1 1477                __end_of_right 144B  
                 __end_of_AS 0166                   __end_of_XB 01AA                   __end_of_US 0123  
               us_value@mode 0053              lcd_dis_num@base 0033         __size_of_line_follow 01B4  
                    ??_right 0020                   __pbssBANK0 005F                   _analog_sen 0A00  
                 __pmaintext 0B54                      ?___lmul 0020                      ?___wmul 0020  
           ??_interrupt_init 0020                   __pintentry 0004                      _CCP1CON 0017  
                    _CCP2CON 001D                   __ptext1400 1548                   __ptext1401 00E2  
                 __ptext1410 00FC                   __ptext1402 150E                   __ptext1411 1434  
                 __ptext1403 1569                   __ptext1420 1593                   __ptext1412 1459  
                 __ptext1404 148D                   __ptext1421 080B                   __ptext1413 1452  
                 __ptext1405 1481                   __ptext1422 170A                   __ptext1414 0015  
                 __ptext1406 14B0                   __ptext1423 174F                   __ptext1415 085A  
                 __ptext1407 146E                   __ptext1424 078A                   __ptext1416 16CD  
                 __ptext1408 1460                   __ptext1425 179B                   __ptext1417 144B  
                 __ptext1409 1437                   __ptext1426 0000                   __ptext1418 1444  
                 __ptext1419 143D                   __ptext1390 15BF                   __ptext1391 14C6  
                 __ptext1383 1657                   __ptext1392 15EE                   __ptext1384 161F  
                 __ptext1393 1691                   __ptext1385 0E4C                   __ptext1394 07F9  
                 __ptext1386 0CB0                   __ptext1395 1467                   __ptext1387 0A00  
                 __ptext1396 0800                   __ptext1388 05B9                   __ptext1397 14F5  
                 __ptext1389 03BD                   __ptext1398 0909                   __ptext1399 14DC  
             ___lmul@product 0029                    ?_adc_init 0070                    ?_backward 0070  
            ??_wireless_xbee 002C           __size_of_uart_init 001A           __size_of_uart_send 000C  
                    _GO_DONE 00FA                   _lcd_config 14F5                    ?_delay_ms 0020  
                  ?_lcd_char 0070                   _lcd_string 15EE                    ?_lcd_home 0070  
                  ?_lcd_init 0070                    ?_lcd_goto 0070                 _code_version 0123  
                 __stringtab 0100                 ??_SKPS_PScon 002C       wireless_xbee@uart_data 002D  
                  ?_read_adc 003B        __size_of_lcd_clr_line 003C                    ?_uart_rec 0070  
            __size_of___lmul 004C                      ___lldiv 078A              __size_of___wmul 002C  
                    ___lwdiv 080B                      ___lwmod 170A                    ?_us_value 004D  
                    _e_pulse 1548                   ??_adc_init 0020         __size_of_timer1_init 0007  
                    _lcd_clr 14C6                   ??_backward 0020           __end_of_SKPS_PScon 05B9  
                    _forward 1452                 __size_of_isr 0065                   ??_delay_ms 0024  
       uart_string_nl@string 0023  __size_of_disable_global_int 0003                   ??_lcd_char 0028  
                 ??_lcd_home 0029                   ??_lcd_init 0029                   ??_lcd_goto 0029  
       __size_of_uart_string 002A         end_of_initialization 1544            SKPS_PScon@right_v 0030  
               _lcd_clr_line 1691                      init_ram 14A1                   ??_read_adc 003D  
                ?_analog_sen 0070            __end_of_uart_init 00FC            __end_of_uart_send 148D  
            ___lldiv@divisor 002D              ___lldiv@counter 003A                ??_lcd_2ndline 0029  
                 ??_uart_rec 0020                 __pstringtext 0100                   ??_us_value 004F  
            read_adc@channel 0045                  ?_lcd_config 0070            _enable_global_int 00FC  
                ?_lcd_string 0029           ?_enable_global_int 0070          _multifunction_robot 0145  
              ??_lcd_dis_num 002B          ??_enable_global_int 0020                   _ultrasonic 0CB0  
    __size_of_uart_string_nl 001A               __end_of___lmul 179B               __end_of___wmul 15BF  
           lcd_dis_num@F1209 0065          __end_of_lcd_2ndline 0800    __end_of_enable_global_int 00FF  
        start_initialization 1528          __size_of_analog_sen 0154             lcd_clr_line@line 002A  
              us_value@value 0054                  __end_of_isr 1800             lcd_dis_num@digit 002C  
           lcd_dis_num@value 0029          __size_of_lcd_config 0019                     ??___lmul 0028  
                   ??___wmul 0024          lcd_dis_num@non_zero 0031          __end_of_lcd_dis_num 0A00  
                __pdataBANK1 00A0          __size_of_lcd_string 0031                ??_line_follow 002B  
          __size_of_adc_init 0009          __end_of_diy_project 0176                  __pbssCOMMON 0077  
          __size_of_backward 0007                __pcstackBANK0 0020          __end_of__stringdata 03BD  
          __size_of_delay_ms 003D            __size_of_lcd_char 0019            __size_of_lcd_home 0007  
          __size_of_lcd_init 0038            __size_of_lcd_goto 000B            __size_of_read_adc 00AF  
           ___lwdiv@dividend 0022                  ?_ultrasonic 0070                  _lcd_2ndline 07F9  
                   ?___lldiv 002D                     ?___lwdiv 0020                     ?___lwmod 0020  
                  beep@count 0028            __size_of_uart_rec 0016                     ?_e_pulse 0070  
                   ?_lcd_clr 0070            __size_of_us_value 00CD   __size_of_enable_global_int 0003  
                   ?_forward 0070        __end_of_wireless_xbee 078A             ___lwdiv@quotient 0025  
        __end_of_line_follow 1000               __size_of_right 0007            interrupt_function 0004  
           SKPS_PScon@left_v 002F             SKPS_PScon@down_v 002E               ___wmul@product 0024  
                _lcd_dis_num 0909                 ??_analog_sen 004D               _uart_string_nl 150E  
                  _uart_init 00E2                    _uart_send 1481                ??_timer1_init 0020  
                _diy_project 0166                  __stringbase 0112                  __stringdata 01B1  
             read_adc@result 0047            ___wmul@multiplier 0020          __end_of_cytron_tech 0193  
               ??_lcd_config 0028   __end_of_disable_global_int 1437                ??_uart_string 0023  
    __size_of_interrupt_init 0006           __end_of_analog_sen 0B54          __size_of_ultrasonic 019C  
               ??_lcd_string 002B                 delay_ms@data 0020            ___lmul@multiplier 0020  
     __end_of_uart_string_nl 1528                    init_fetch 149D           __end_of_lcd_config 150E  
                  read_adc@i 0046                   ?_uart_init 0070                   ?_uart_send 0070  
           __size_of___lldiv 006F             __size_of___lwdiv 004F           __end_of_lcd_string 161F  
           __size_of___lwmod 0045           __end_of__stringtab 0112                     _adc_init 146E  
                   _backward 144B             __size_of_e_pulse 0021                  _line_follow 0E4C  
           __size_of_lcd_clr 0016          __end_of_timer1_init 1467                     _pr23_rev 0193  
           __size_of_forward 0007                     _delay_ms 16CD              ___lwdiv@divisor 0020  
            ___lwdiv@counter 0027           ultrasonic@ez1_mode 0059                     _lcd_char 14DC  
                   _lcd_home 1467                     _lcd_init 161F                     _lcd_goto 0800  
        __end_of_uart_string 1593                __size_of_beep 002F                     _read_adc 085A  
              __size_of_main 015C                __size_of_left 0007                __size_of_init 003A  
              __size_of_skps 0010           ultrasonic@distance 005A                __size_of_stop 0007  
                _mode_string 00A0              ?_uart_string_nl 0023                     _uart_rec 14B0  
          line_follow@memory 002C                  _cytron_tech 0185                     _us_value 0015  
                   main@mode 005E                     intlevel1 0000             ___lwmod@dividend 0022  
           ___lldiv@dividend 0031  __end_of_multifunction_robot 0156                    stringcode 010A  
               ??_ultrasonic 0058               SKPS_PScon@up_v 002D                     skps@data 0021  
               ?_lcd_2ndline 0070                  ??_uart_init 0020                  ??_uart_send 0020  
                _timer1_init 1460                uart_send@data 0020             ___lldiv@quotient 0036  
            ___lwmod@divisor 0020               _interrupt_init 1437              ___lwmod@counter 0025  
         analog_sen@distance 0051                     stringtab 0100                  _uart_string 1569  
         __end_of_ultrasonic 0E4C                   _SKPS_PScon 03BD                ?_lcd_clr_line 0070  
               ?_lcd_dis_num 0029  
